Archive member included because of file (symbol)

c:/winavr-20100110/bin/../lib/gcc/avr/4.3.3/avr5\libgcc.a(_mulsi3.o)
                              obj\Debug\RP6Examples_20120725f\RP6Lib\RP6base\RP6RobotBaseLib.o (__mulsi3)
c:/winavr-20100110/bin/../lib/gcc/avr/4.3.3/avr5\libgcc.a(_udivmodhi4.o)
                              obj\Debug\RP6Examples_20120725f\RP6Lib\RP6base\RP6RobotBaseLib.o (__udivmodhi4)
c:/winavr-20100110/bin/../lib/gcc/avr/4.3.3/avr5\libgcc.a(_udivmodsi4.o)
                              obj\Debug\RP6Examples_20120725f\RP6Lib\RP6base\RP6RobotBaseLib.o (__udivmodsi4)
c:/winavr-20100110/bin/../lib/gcc/avr/4.3.3/avr5\libgcc.a(_exit.o)
                              c:/winavr-20100110/bin/../lib/gcc/avr/4.3.3/../../../../avr/lib/avr5/crtm32.o (exit)
c:/winavr-20100110/bin/../lib/gcc/avr/4.3.3/avr5\libgcc.a(_copy_data.o)
                              obj\Debug\RP6Examples_20120725f\RP6Lib\RP6base\RP6RobotBaseLib.o (__do_copy_data)
c:/winavr-20100110/bin/../lib/gcc/avr/4.3.3/avr5\libgcc.a(_clear_bss.o)
                              obj\Debug\RP6Examples_20120725f\RP6Lib\RP6base\RP6RobotBaseLib.o (__do_clear_bss)
c:/winavr-20100110/bin/../lib/gcc/avr/4.3.3/avr5\libgcc.a(_addsub_sf.o)
                              obj\Debug\program\RP6FindCenter\main.o (__subsf3)
c:/winavr-20100110/bin/../lib/gcc/avr/4.3.3/avr5\libgcc.a(_mul_sf.o)
                              obj\Debug\program\RP6FindCenter\main.o (__mulsf3)
c:/winavr-20100110/bin/../lib/gcc/avr/4.3.3/avr5\libgcc.a(_div_sf.o)
                              obj\Debug\program\RP6FindCenter\main.o (__divsf3)
c:/winavr-20100110/bin/../lib/gcc/avr/4.3.3/avr5\libgcc.a(_si_to_sf.o)
                              obj\Debug\program\RP6FindCenter\main.o (__floatsisf)
c:/winavr-20100110/bin/../lib/gcc/avr/4.3.3/avr5\libgcc.a(_sf_to_si.o)
                              obj\Debug\program\RP6FindCenter\main.o (__fixsfsi)
c:/winavr-20100110/bin/../lib/gcc/avr/4.3.3/avr5\libgcc.a(_thenan_sf.o)
                              c:/winavr-20100110/bin/../lib/gcc/avr/4.3.3/avr5\libgcc.a(_addsub_sf.o) (__thenan_sf)
c:/winavr-20100110/bin/../lib/gcc/avr/4.3.3/avr5\libgcc.a(_prologue.o)
                              c:/winavr-20100110/bin/../lib/gcc/avr/4.3.3/avr5\libgcc.a(_addsub_sf.o) (__prologue_saves__)
c:/winavr-20100110/bin/../lib/gcc/avr/4.3.3/avr5\libgcc.a(_epilogue.o)
                              c:/winavr-20100110/bin/../lib/gcc/avr/4.3.3/avr5\libgcc.a(_addsub_sf.o) (__epilogue_restores__)
c:/winavr-20100110/bin/../lib/gcc/avr/4.3.3/avr5\libgcc.a(_clzsi2.o)
                              c:/winavr-20100110/bin/../lib/gcc/avr/4.3.3/avr5\libgcc.a(_si_to_sf.o) (__clzsi2)
c:/winavr-20100110/bin/../lib/gcc/avr/4.3.3/avr5\libgcc.a(_pack_sf.o)
                              c:/winavr-20100110/bin/../lib/gcc/avr/4.3.3/avr5\libgcc.a(_addsub_sf.o) (__pack_f)
c:/winavr-20100110/bin/../lib/gcc/avr/4.3.3/avr5\libgcc.a(_unpack_sf.o)
                              c:/winavr-20100110/bin/../lib/gcc/avr/4.3.3/avr5\libgcc.a(_addsub_sf.o) (__unpack_f)
c:/winavr-20100110/bin/../lib/gcc/avr/4.3.3/avr5\libgcc.a(_clz.o)
                              c:/winavr-20100110/bin/../lib/gcc/avr/4.3.3/avr5\libgcc.a(_clzsi2.o) (__clz_tab)
C:\WinAVR-20100110\avr\lib\libm.a(sqrt.o)
                              obj\Debug\program\RP6FindCenter\main.o (sqrt)
C:\WinAVR-20100110\avr\lib\libm.a(fp_mpack.o)
                              C:\WinAVR-20100110\avr\lib\libm.a(sqrt.o) (__fp_mpack)
C:\WinAVR-20100110\avr\lib\libm.a(fp_nan.o)
                              C:\WinAVR-20100110\avr\lib\libm.a(sqrt.o) (__fp_nan)
C:\WinAVR-20100110\avr\lib\libm.a(fp_norm2.o)
                              C:\WinAVR-20100110\avr\lib\libm.a(sqrt.o) (__fp_norm2)
C:\WinAVR-20100110\avr\lib\libm.a(fp_split3.o)
                              C:\WinAVR-20100110\avr\lib\libm.a(sqrt.o) (__fp_splitA)
C:\WinAVR-20100110\avr\lib\libc.a(malloc.o)
                              obj\Debug\program\RP6FindCenter\main.o (malloc)
C:\WinAVR-20100110\avr\lib\libc.a(strlen.o)
                              obj\Debug\RP6Examples_20120725f\RP6Lib\RP6common\RP6uart.o (strlen)
C:\WinAVR-20100110\avr\lib\libc.a(itoa.o)
                              obj\Debug\RP6Examples_20120725f\RP6Lib\RP6common\RP6uart.o (itoa)
C:\WinAVR-20100110\avr\lib\libc.a(strrev.o)
                              C:\WinAVR-20100110\avr\lib\libc.a(itoa.o) (strrev)

Allocating common symbols
Common symbol       size              file

bumper_left         0x1               obj\Debug\RP6Examples_20120725f\RP6Lib\RP6base\RP6RobotBaseLib.o
preStop_R           0x2               obj\Debug\RP6Examples_20120725f\RP6Lib\RP6base\RP6RobotBaseLib.o
mright_des_speed    0x2               obj\Debug\RP6Examples_20120725f\RP6Lib\RP6base\RP6RobotBaseLib.o
I2CTWI_genCallCMD   0x1               obj\Debug\RP6Examples_20120725f\RP6Lib\RP6common\RP6I2CslaveTWI.o
timer               0x2               obj\Debug\RP6Examples_20120725f\RP6Lib\RP6base\RP6RobotBaseLib.o
mleft_des_speed     0x2               obj\Debug\RP6Examples_20120725f\RP6Lib\RP6base\RP6RobotBaseLib.o
mleft_des_speed_tmp
                    0x2               obj\Debug\RP6Examples_20120725f\RP6Lib\RP6base\RP6RobotBaseLib.o
uart_status         0x1               obj\Debug\RP6Examples_20120725f\RP6Lib\RP6common\RP6uart.o
I2CTWI_writeRegisters
                    0x10              obj\Debug\RP6Examples_20120725f\RP6Lib\RP6common\RP6I2CslaveTWI.o
motion_status       0x1               obj\Debug\RP6Examples_20120725f\RP6Lib\RP6base\RP6RobotBaseLib.o
sysStatACS          0x1               obj\Debug\RP6Examples_20120725f\RP6Lib\RP6base\RP6RobotBaseLib.o
ircomm_send         0x1               obj\Debug\RP6Examples_20120725f\RP6Lib\RP6base\RP6RobotBaseLib.o
overcurrent_error_clear
                    0x1               obj\Debug\RP6Examples_20120725f\RP6Lib\RP6base\RP6RobotBaseLib.o
distanceToMove_R    0x2               obj\Debug\RP6Examples_20120725f\RP6Lib\RP6base\RP6RobotBaseLib.o
acs_pulse           0x1               obj\Debug\RP6Examples_20120725f\RP6Lib\RP6base\RP6RobotBaseLib.o
left_i              0x2               obj\Debug\RP6Examples_20120725f\RP6Lib\RP6base\RP6RobotBaseLib.o
IRCOMM_RC5_data     0x2               obj\Debug\RP6Examples_20120725f\RP6Lib\RP6base\RP6RobotBaseLib.o
motor_control       0x1               obj\Debug\RP6Examples_20120725f\RP6Lib\RP6base\RP6RobotBaseLib.o
leds_on             0x1               obj\Debug\RP6Examples_20120725f\RP6Lib\RP6base\RP6RobotBaseLib.o
mleft_power         0x2               obj\Debug\RP6Examples_20120725f\RP6Lib\RP6base\RP6RobotBaseLib.o
__brkval            0x2               C:\WinAVR-20100110\avr\lib\libc.a(malloc.o)
mleft_speed         0x2               obj\Debug\RP6Examples_20120725f\RP6Lib\RP6base\RP6RobotBaseLib.o
preDecelerate_R     0x2               obj\Debug\RP6Examples_20120725f\RP6Lib\RP6base\RP6RobotBaseLib.o
tanAlpha            0x4               obj\Debug\program\RP6FindCenter\main.o
RP6Settings         0x14              obj\Debug\program\RP6FindCenter\main.o
mright_des_speed_tmp
                    0x2               obj\Debug\RP6Examples_20120725f\RP6Lib\RP6base\RP6RobotBaseLib.o
adc1                0x2               obj\Debug\RP6Examples_20120725f\RP6Lib\RP6base\RP6RobotBaseLib.o
adcLSL              0x2               obj\Debug\RP6Examples_20120725f\RP6Lib\RP6base\RP6RobotBaseLib.o
acs_timer           0x2               obj\Debug\RP6Examples_20120725f\RP6Lib\RP6base\RP6RobotBaseLib.o
preStop_L           0x2               obj\Debug\RP6Examples_20120725f\RP6Lib\RP6base\RP6RobotBaseLib.o
RP6State            0x2               obj\Debug\program\RP6FindCenter\main.o
mright_power        0x2               obj\Debug\RP6Examples_20120725f\RP6Lib\RP6base\RP6RobotBaseLib.o
mright_counter      0x2               obj\Debug\RP6Examples_20120725f\RP6Lib\RP6base\RP6RobotBaseLib.o
ircomm_data_tmp     0x2               obj\Debug\RP6Examples_20120725f\RP6Lib\RP6base\RP6RobotBaseLib.o
firstTracks         0x50              obj\Debug\program\RP6FindCenter\main.o
distanceToMove_L    0x2               obj\Debug\RP6Examples_20120725f\RP6Lib\RP6base\RP6RobotBaseLib.o
stopwatches         0x11              obj\Debug\RP6Examples_20120725f\RP6Lib\RP6base\RP6RobotBaseLib.o
overcurrent_timeout
                    0x1               obj\Debug\RP6Examples_20120725f\RP6Lib\RP6base\RP6RobotBaseLib.o
obstacle_left       0x1               obj\Debug\RP6Examples_20120725f\RP6Lib\RP6base\RP6RobotBaseLib.o
overcurrent_errors  0x1               obj\Debug\RP6Examples_20120725f\RP6Lib\RP6base\RP6RobotBaseLib.o
overcurrent_timer   0x1               obj\Debug\RP6Examples_20120725f\RP6Lib\RP6base\RP6RobotBaseLib.o
statusLEDs          0x1               obj\Debug\RP6Examples_20120725f\RP6Lib\RP6base\RP6RobotBaseLib.o
mright_ptmp         0x1               obj\Debug\RP6Examples_20120725f\RP6Lib\RP6base\RP6RobotBaseLib.o
ircomm_data         0x2               obj\Debug\RP6Examples_20120725f\RP6Lib\RP6base\RP6RobotBaseLib.o
adcLSR              0x2               obj\Debug\RP6Examples_20120725f\RP6Lib\RP6base\RP6RobotBaseLib.o
speed_adjust_timer  0x1               obj\Debug\RP6Examples_20120725f\RP6Lib\RP6base\RP6RobotBaseLib.o
obstacle_right      0x1               obj\Debug\RP6Examples_20120725f\RP6Lib\RP6base\RP6RobotBaseLib.o
speed_timer         0x1               obj\Debug\RP6Examples_20120725f\RP6Lib\RP6base\RP6RobotBaseLib.o
right_i             0x2               obj\Debug\RP6Examples_20120725f\RP6Lib\RP6base\RP6RobotBaseLib.o
bumper_timer        0x1               obj\Debug\RP6Examples_20120725f\RP6Lib\RP6base\RP6RobotBaseLib.o
mright_dist         0x2               obj\Debug\RP6Examples_20120725f\RP6Lib\RP6base\RP6RobotBaseLib.o
preDecelerate_L     0x2               obj\Debug\RP6Examples_20120725f\RP6Lib\RP6base\RP6RobotBaseLib.o
mleft_counter       0x2               obj\Debug\RP6Examples_20120725f\RP6Lib\RP6base\RP6RobotBaseLib.o
adc0                0x2               obj\Debug\RP6Examples_20120725f\RP6Lib\RP6base\RP6RobotBaseLib.o
delay_timer         0x1               obj\Debug\RP6Examples_20120725f\RP6Lib\RP6base\RP6RobotBaseLib.o
I2CTWI_readRegisters
                    0x30              obj\Debug\RP6Examples_20120725f\RP6Lib\RP6common\RP6I2CslaveTWI.o
adcMotorCurrentRight
                    0x2               obj\Debug\RP6Examples_20120725f\RP6Lib\RP6base\RP6RobotBaseLib.o
ms_timer            0x1               obj\Debug\RP6Examples_20120725f\RP6Lib\RP6base\RP6RobotBaseLib.o
__flp               0x2               C:\WinAVR-20100110\avr\lib\libc.a(malloc.o)
mright_speed        0x2               obj\Debug\RP6Examples_20120725f\RP6Lib\RP6base\RP6RobotBaseLib.o
mleft_dist          0x2               obj\Debug\RP6Examples_20120725f\RP6Lib\RP6base\RP6RobotBaseLib.o
bumper_right        0x1               obj\Debug\RP6Examples_20120725f\RP6Lib\RP6base\RP6RobotBaseLib.o
acs_event_counter   0x1               obj\Debug\RP6Examples_20120725f\RP6Lib\RP6base\RP6RobotBaseLib.o
secondTracks        0x50              obj\Debug\program\RP6FindCenter\main.o
motion_status_tmp   0x1               obj\Debug\RP6Examples_20120725f\RP6Lib\RP6base\RP6RobotBaseLib.o
adcBat              0x2               obj\Debug\RP6Examples_20120725f\RP6Lib\RP6base\RP6RobotBaseLib.o
uart_receive_buffer
                    0x21              obj\Debug\RP6Examples_20120725f\RP6Lib\RP6common\RP6uart.o
IRCOMM_RC5_data_ok  0x2               obj\Debug\RP6Examples_20120725f\RP6Lib\RP6base\RP6RobotBaseLib.o
mleft_ptmp          0x1               obj\Debug\RP6Examples_20120725f\RP6Lib\RP6base\RP6RobotBaseLib.o
adcMotorCurrentLeft
                    0x2               obj\Debug\RP6Examples_20120725f\RP6Lib\RP6base\RP6RobotBaseLib.o

Memory Configuration

Name             Origin             Length             Attributes
text             0x00000000         0x00020000         xr
data             0x00800060         0x0000ffa0         rw !x
eeprom           0x00810000         0x00010000         rw !x
fuse             0x00820000         0x00000400         rw !x
lock             0x00830000         0x00000400         rw !x
signature        0x00840000         0x00000400         rw !x
*default*        0x00000000         0xffffffff

Linker script and memory map

LOAD c:/winavr-20100110/bin/../lib/gcc/avr/4.3.3/../../../../avr/lib/avr5/crtm32.o
LOAD obj\Debug\RP6Examples_20120725f\RP6Lib\RP6base\RP6RobotBaseLib.o
LOAD obj\Debug\RP6Examples_20120725f\RP6Lib\RP6common\RP6I2CslaveTWI.o
LOAD obj\Debug\RP6Examples_20120725f\RP6Lib\RP6common\RP6uart.o
LOAD obj\Debug\program\RP6FindCenter\main.o
LOAD c:/winavr-20100110/bin/../lib/gcc/avr/4.3.3/avr5\libgcc.a
LOAD C:\WinAVR-20100110\avr\lib\libm.a
LOAD c:/winavr-20100110/bin/../lib/gcc/avr/4.3.3/avr5\libgcc.a
LOAD C:\WinAVR-20100110\avr\lib\libc.a
LOAD c:/winavr-20100110/bin/../lib/gcc/avr/4.3.3/avr5\libgcc.a

.hash
 *(.hash)

.dynsym
 *(.dynsym)

.dynstr
 *(.dynstr)

.gnu.version
 *(.gnu.version)

.gnu.version_d
 *(.gnu.version_d)

.gnu.version_r
 *(.gnu.version_r)

.rel.init
 *(.rel.init)

.rela.init
 *(.rela.init)

.rel.text
 *(.rel.text)
 *(.rel.text.*)
 *(.rel.gnu.linkonce.t*)

.rela.text
 *(.rela.text)
 *(.rela.text.*)
 *(.rela.gnu.linkonce.t*)

.rel.fini
 *(.rel.fini)

.rela.fini
 *(.rela.fini)

.rel.rodata
 *(.rel.rodata)
 *(.rel.rodata.*)
 *(.rel.gnu.linkonce.r*)

.rela.rodata
 *(.rela.rodata)
 *(.rela.rodata.*)
 *(.rela.gnu.linkonce.r*)

.rel.data
 *(.rel.data)
 *(.rel.data.*)
 *(.rel.gnu.linkonce.d*)

.rela.data
 *(.rela.data)
 *(.rela.data.*)
 *(.rela.gnu.linkonce.d*)

.rel.ctors
 *(.rel.ctors)

.rela.ctors
 *(.rela.ctors)

.rel.dtors
 *(.rel.dtors)

.rela.dtors
 *(.rela.dtors)

.rel.got
 *(.rel.got)

.rela.got
 *(.rela.got)

.rel.bss
 *(.rel.bss)

.rela.bss
 *(.rela.bss)

.rel.plt
 *(.rel.plt)

.rela.plt
 *(.rela.plt)

.text           0x00000000     0x5230
 *(.vectors)
 .vectors       0x00000000       0x54 c:/winavr-20100110/bin/../lib/gcc/avr/4.3.3/../../../../avr/lib/avr5/crtm32.o
                0x00000000                __vectors
                0x00000000                __vector_default
 *(.vectors)
 *(.progmem.gcc*)
 *(.progmem*)
 .progmem.data  0x00000054      0x1be obj\Debug\RP6Examples_20120725f\RP6Lib\RP6base\RP6RobotBaseLib.o
                0x00000212                . = ALIGN (0x2)
                0x00000212                __trampolines_start = .
 *(.trampolines)
 .trampolines   0x00000212        0x0 linker stubs
 *(.trampolines*)
                0x00000212                __trampolines_end = .
 *(.jumptables)
 *(.jumptables*)
 *(.lowtext)
 *(.lowtext*)
                0x00000212                __ctors_start = .
 *(.ctors)
                0x00000212                __ctors_end = .
                0x00000212                __dtors_start = .
 *(.dtors)
                0x00000212                __dtors_end = .
 SORT(*)(.ctors)
 SORT(*)(.dtors)
 *(.init0)
 .init0         0x00000212        0x0 c:/winavr-20100110/bin/../lib/gcc/avr/4.3.3/../../../../avr/lib/avr5/crtm32.o
                0x00000212                __init
 *(.init0)
 *(.init1)
 *(.init1)
 *(.init2)
 .init2         0x00000212        0xc c:/winavr-20100110/bin/../lib/gcc/avr/4.3.3/../../../../avr/lib/avr5/crtm32.o
 *(.init2)
 *(.init3)
 *(.init3)
 *(.init4)
 .init4         0x0000021e       0x16 c:/winavr-20100110/bin/../lib/gcc/avr/4.3.3/avr5\libgcc.a(_copy_data.o)
                0x0000021e                __do_copy_data
 .init4         0x00000234       0x10 c:/winavr-20100110/bin/../lib/gcc/avr/4.3.3/avr5\libgcc.a(_clear_bss.o)
                0x00000234                __do_clear_bss
 *(.init4)
 *(.init5)
 *(.init5)
 *(.init6)
 *(.init6)
 *(.init7)
 *(.init7)
 *(.init8)
 *(.init8)
 *(.init9)
 .init9         0x00000244        0x8 c:/winavr-20100110/bin/../lib/gcc/avr/4.3.3/../../../../avr/lib/avr5/crtm32.o
 *(.init9)
 *(.text)
 .text          0x0000024c        0x4 c:/winavr-20100110/bin/../lib/gcc/avr/4.3.3/../../../../avr/lib/avr5/crtm32.o
                0x0000024c                __vector_12
                0x0000024c                __bad_interrupt
                0x0000024c                __vector_6
                0x0000024c                __vector_11
                0x0000024c                __vector_17
                0x0000024c                __vector_7
                0x0000024c                __vector_5
                0x0000024c                __vector_9
                0x0000024c                __vector_15
                0x0000024c                __vector_8
                0x0000024c                __vector_14
                0x0000024c                __vector_16
                0x0000024c                __vector_18
                0x0000024c                __vector_20
 .text          0x00000250     0x22f0 obj\Debug\RP6Examples_20120725f\RP6Lib\RP6base\RP6RobotBaseLib.o
                0x00000250                enablePowerOnWarning
                0x0000231a                mSleep
                0x00000700                __vector_1
                0x000012e4                setMotorPower
                0x00000432                getBumperRight
                0x00000798                MOTIONCONTROL_stateChanged_DUMMY
                0x00001600                IRCOMM_RC5dataReady_DUMMY
                0x00000ee0                moveAtSpeedDirection
                0x0000026a                disablePowerOnWarning
                0x000003b2                setLEDs
                0x00001194                rotate
                0x0000132c                setMotorDir
                0x0000239a                extIntON
                0x00001d42                powerOFF
                0x000022f8                sleep
                0x0000157c                __vector_3
                0x0000027e                updateStatusLEDs
                0x000013a4                IRCOMM_sendRC5
                0x0000235c                delayCycles
                0x00001b3e                disableACS
                0x000004a2                BUMPERS_setStateChangedHandler
                0x00001c8c                setACSPwrMed
                0x00001618                IRCOMM_setRC5DataReadyHandler
                0x0000164a                ACS_setStateChangedHandler
                0x0000051c                readADC
                0x00000ffe                move
                0x000003d0                getBumperLeft
                0x0000166e                task_ACS
                0x00000e32                moveAtSpeed
                0x00000e7a                changeDirection
                0x00001cd2                setACSPwrHigh
                0x00001be4                setACSPwrOff
                0x00001c46                setACSPwrLow
                0x000007ca                emergencyShutdown
                0x000004c6                task_Bumpers
                0x000023ee                task_RP6System
                0x0000163c                ACS_stateChanged_DUMMY
                0x00001414                __vector_4
                0x00001b90                enableACS
                0x0000074c                __vector_2
                0x000023c4                extIntOFF
                0x00000590                startADC
                0x00001d18                powerON
                0x000007a6                MOTIONCONTROL_setStateChangedHandler
                0x000008e6                task_motionControl
                0x0000240c                initRobotBase
                0x00000494                BUMPERS_stateChanged_DUMMY
                0x00001d90                __vector_10
                0x00000faa                stop
                0x00000f72                isMovementComplete
                0x000005b6                task_ADC
 .text          0x00002540      0x200 obj\Debug\RP6Examples_20120725f\RP6Lib\RP6common\RP6I2CslaveTWI.o
                0x00002578                __vector_19
                0x00002540                I2CTWI_initSlave
 .text          0x00002740      0x3be obj\Debug\RP6Examples_20120725f\RP6Lib\RP6common\RP6uart.o
                0x000029be                readChar
                0x00002a16                readChars
                0x00002a9a                getBufferLength
                0x00002ab6                clearReceptionBuffer
                0x0000276e                writeString
                0x000028a4                writeIntegerLength
                0x0000292e                __vector_13
                0x0000285a                writeInteger
                0x00002740                writeChar
                0x000027f8                writeStringLength
                0x000027a8                writeNStringP
 .text          0x00002afe     0x1724 obj\Debug\program\RP6FindCenter\main.o
                0x00003c04                calcWithThreeTracks
                0x00003e8e                calcWithFourTracks
                0x00003912                checkTwoNotAdjacentCornerTracks
                0x0000380e                firstTrackIsCrossTrack
                0x000039f8                calcWithTwoTracks
                0x000038aa                hasCrossTracks
                0x00002b80                stateMachine
                0x00002eb2                tryCalcFirstSide
                0x00003840                onlyCornerTracks
                0x00002afe                main
                0x000040c4                newTrack
                0x0000413a                checkTwoTracks
                0x00003112                tryCalcSecondSide
                0x00002cda                evalSettings
                0x0000418c                checkThreeTracks
                0x000037ba                getNextCornerTrack
 .text          0x00004222        0x0 c:/winavr-20100110/bin/../lib/gcc/avr/4.3.3/avr5\libgcc.a(_mulsi3.o)
 .text          0x00004222        0x0 c:/winavr-20100110/bin/../lib/gcc/avr/4.3.3/avr5\libgcc.a(_udivmodhi4.o)
 .text          0x00004222        0x0 c:/winavr-20100110/bin/../lib/gcc/avr/4.3.3/avr5\libgcc.a(_udivmodsi4.o)
 .text          0x00004222        0x0 c:/winavr-20100110/bin/../lib/gcc/avr/4.3.3/avr5\libgcc.a(_exit.o)
 .text          0x00004222        0x0 c:/winavr-20100110/bin/../lib/gcc/avr/4.3.3/avr5\libgcc.a(_copy_data.o)
 .text          0x00004222        0x0 c:/winavr-20100110/bin/../lib/gcc/avr/4.3.3/avr5\libgcc.a(_clear_bss.o)
 .text          0x00004222      0x354 c:/winavr-20100110/bin/../lib/gcc/avr/4.3.3/avr5\libgcc.a(_addsub_sf.o)
                0x000044ba                __subsf3
                0x0000451c                __addsf3
 .text          0x00004576      0x1f4 c:/winavr-20100110/bin/../lib/gcc/avr/4.3.3/avr5\libgcc.a(_mul_sf.o)
                0x00004576                __mulsf3
 .text          0x0000476a      0x158 c:/winavr-20100110/bin/../lib/gcc/avr/4.3.3/avr5\libgcc.a(_div_sf.o)
                0x0000476a                __divsf3
 .text          0x000048c2       0xbc c:/winavr-20100110/bin/../lib/gcc/avr/4.3.3/avr5\libgcc.a(_si_to_sf.o)
                0x000048c2                __floatsisf
 .text          0x0000497e       0xa8 c:/winavr-20100110/bin/../lib/gcc/avr/4.3.3/avr5\libgcc.a(_sf_to_si.o)
                0x0000497e                __fixsfsi
 .text          0x00004a26        0x0 c:/winavr-20100110/bin/../lib/gcc/avr/4.3.3/avr5\libgcc.a(_thenan_sf.o)
 .text          0x00004a26        0x0 c:/winavr-20100110/bin/../lib/gcc/avr/4.3.3/avr5\libgcc.a(_prologue.o)
 .text          0x00004a26        0x0 c:/winavr-20100110/bin/../lib/gcc/avr/4.3.3/avr5\libgcc.a(_epilogue.o)
 .text          0x00004a26       0x9e c:/winavr-20100110/bin/../lib/gcc/avr/4.3.3/avr5\libgcc.a(_clzsi2.o)
                0x00004a26                __clzsi2
 .text          0x00004ac4      0x1aa c:/winavr-20100110/bin/../lib/gcc/avr/4.3.3/avr5\libgcc.a(_pack_sf.o)
                0x00004ac4                __pack_f
 .text          0x00004c6e       0xf0 c:/winavr-20100110/bin/../lib/gcc/avr/4.3.3/avr5\libgcc.a(_unpack_sf.o)
                0x00004c6e                __unpack_f
 .text          0x00004d5e        0x0 c:/winavr-20100110/bin/../lib/gcc/avr/4.3.3/avr5\libgcc.a(_clz.o)
 .text          0x00004d5e        0x0 C:\WinAVR-20100110\avr\lib\libm.a(sqrt.o)
 .text          0x00004d5e        0x0 C:\WinAVR-20100110\avr\lib\libm.a(fp_mpack.o)
 .text          0x00004d5e        0x0 C:\WinAVR-20100110\avr\lib\libm.a(fp_nan.o)
 .text          0x00004d5e        0x0 C:\WinAVR-20100110\avr\lib\libm.a(fp_norm2.o)
 .text          0x00004d5e        0x0 C:\WinAVR-20100110\avr\lib\libm.a(fp_split3.o)
 .text          0x00004d5e        0x0 C:\WinAVR-20100110\avr\lib\libc.a(malloc.o)
 .text          0x00004d5e        0x0 C:\WinAVR-20100110\avr\lib\libc.a(strlen.o)
 .text          0x00004d5e        0x0 C:\WinAVR-20100110\avr\lib\libc.a(itoa.o)
 .text          0x00004d5e        0x0 C:\WinAVR-20100110\avr\lib\libc.a(strrev.o)
                0x00004d5e                . = ALIGN (0x2)
 *(.text.*)
 .text.libgcc   0x00004d5e       0x3e c:/winavr-20100110/bin/../lib/gcc/avr/4.3.3/avr5\libgcc.a(_mulsi3.o)
                0x00004d5e                __mulsi3
 .text.libgcc   0x00004d9c       0x28 c:/winavr-20100110/bin/../lib/gcc/avr/4.3.3/avr5\libgcc.a(_udivmodhi4.o)
                0x00004d9c                __udivmodhi4
 .text.libgcc   0x00004dc4       0x44 c:/winavr-20100110/bin/../lib/gcc/avr/4.3.3/avr5\libgcc.a(_udivmodsi4.o)
                0x00004dc4                __udivmodsi4
 .text.libgcc   0x00004e08        0x0 c:/winavr-20100110/bin/../lib/gcc/avr/4.3.3/avr5\libgcc.a(_exit.o)
 .text.libgcc   0x00004e08        0x0 c:/winavr-20100110/bin/../lib/gcc/avr/4.3.3/avr5\libgcc.a(_copy_data.o)
 .text.libgcc   0x00004e08        0x0 c:/winavr-20100110/bin/../lib/gcc/avr/4.3.3/avr5\libgcc.a(_clear_bss.o)
 .text.libgcc   0x00004e08       0x38 c:/winavr-20100110/bin/../lib/gcc/avr/4.3.3/avr5\libgcc.a(_prologue.o)
                0x00004e08                __prologue_saves__
 .text.libgcc   0x00004e40       0x36 c:/winavr-20100110/bin/../lib/gcc/avr/4.3.3/avr5\libgcc.a(_epilogue.o)
                0x00004e40                __epilogue_restores__
 .text.avr-libc.fplib
                0x00004e76       0x88 C:\WinAVR-20100110\avr\lib\libm.a(sqrt.o)
                0x00004e7e                sqrt
 .text.avr-libc.fplib
                0x00004efe       0x1c C:\WinAVR-20100110\avr\lib\libm.a(fp_mpack.o)
                0x00004f02                __fp_mpack_finite
                0x00004efe                __fp_mpack
 .text.avr-libc.fplib
                0x00004f1a        0x6 C:\WinAVR-20100110\avr\lib\libm.a(fp_nan.o)
                0x00004f1a                __fp_nan
 .text.avr-libc.fplib
                0x00004f20        0xe C:\WinAVR-20100110\avr\lib\libm.a(fp_norm2.o)
                0x00004f20                __fp_norm2
 .text.avr-libc.fplib
                0x00004f2e       0x44 C:\WinAVR-20100110\avr\lib\libm.a(fp_split3.o)
                0x00004f2e                __fp_split3
                0x00004f3e                __fp_splitA
 .text.avr-libc
                0x00004f72      0x23c C:\WinAVR-20100110\avr\lib\libc.a(malloc.o)
                0x00004f72                malloc
                0x000050f2                free
 .text.avr-libc
                0x000051ae       0x14 C:\WinAVR-20100110\avr\lib\libc.a(strlen.o)
                0x000051ae                strlen
 .text.avr-libc
                0x000051c2       0x46 C:\WinAVR-20100110\avr\lib\libc.a(itoa.o)
                0x000051c2                itoa
 .text.avr-libc
                0x00005208       0x24 C:\WinAVR-20100110\avr\lib\libc.a(strrev.o)
                0x00005208                strrev
                0x0000522c                . = ALIGN (0x2)
 *(.fini9)
 .fini9         0x0000522c        0x0 c:/winavr-20100110/bin/../lib/gcc/avr/4.3.3/avr5\libgcc.a(_exit.o)
                0x0000522c                exit
                0x0000522c                _exit
 *(.fini9)
 *(.fini8)
 *(.fini8)
 *(.fini7)
 *(.fini7)
 *(.fini6)
 *(.fini6)
 *(.fini5)
 *(.fini5)
 *(.fini4)
 *(.fini4)
 *(.fini3)
 *(.fini3)
 *(.fini2)
 *(.fini2)
 *(.fini1)
 *(.fini1)
 *(.fini0)
 .fini0         0x0000522c        0x4 c:/winavr-20100110/bin/../lib/gcc/avr/4.3.3/avr5\libgcc.a(_exit.o)
 *(.fini0)
                0x00005230                _etext = .

.data           0x00800060      0x1fe load address 0x00005230
                0x00800060                PROVIDE (__data_start, .)
 *(.data)
 .data          0x00800060        0x0 c:/winavr-20100110/bin/../lib/gcc/avr/4.3.3/../../../../avr/lib/avr5/crtm32.o
 .data          0x00800060        0x9 obj\Debug\RP6Examples_20120725f\RP6Lib\RP6base\RP6RobotBaseLib.o
                0x00800064                acs_state
 .data          0x00800069        0x0 obj\Debug\RP6Examples_20120725f\RP6Lib\RP6common\RP6I2CslaveTWI.o
 .data          0x00800069        0x0 obj\Debug\RP6Examples_20120725f\RP6Lib\RP6common\RP6uart.o
 .data          0x00800069       0xe6 obj\Debug\program\RP6FindCenter\main.o
 .data          0x0080014f        0x0 c:/winavr-20100110/bin/../lib/gcc/avr/4.3.3/avr5\libgcc.a(_mulsi3.o)
 .data          0x0080014f        0x0 c:/winavr-20100110/bin/../lib/gcc/avr/4.3.3/avr5\libgcc.a(_udivmodhi4.o)
 .data          0x0080014f        0x0 c:/winavr-20100110/bin/../lib/gcc/avr/4.3.3/avr5\libgcc.a(_udivmodsi4.o)
 .data          0x0080014f        0x0 c:/winavr-20100110/bin/../lib/gcc/avr/4.3.3/avr5\libgcc.a(_exit.o)
 .data          0x0080014f        0x0 c:/winavr-20100110/bin/../lib/gcc/avr/4.3.3/avr5\libgcc.a(_copy_data.o)
 .data          0x0080014f        0x0 c:/winavr-20100110/bin/../lib/gcc/avr/4.3.3/avr5\libgcc.a(_clear_bss.o)
 .data          0x0080014f        0x0 c:/winavr-20100110/bin/../lib/gcc/avr/4.3.3/avr5\libgcc.a(_addsub_sf.o)
 .data          0x0080014f        0x0 c:/winavr-20100110/bin/../lib/gcc/avr/4.3.3/avr5\libgcc.a(_mul_sf.o)
 .data          0x0080014f        0x0 c:/winavr-20100110/bin/../lib/gcc/avr/4.3.3/avr5\libgcc.a(_div_sf.o)
 .data          0x0080014f        0x0 c:/winavr-20100110/bin/../lib/gcc/avr/4.3.3/avr5\libgcc.a(_si_to_sf.o)
 .data          0x0080014f        0x0 c:/winavr-20100110/bin/../lib/gcc/avr/4.3.3/avr5\libgcc.a(_sf_to_si.o)
 .data          0x0080014f        0x8 c:/winavr-20100110/bin/../lib/gcc/avr/4.3.3/avr5\libgcc.a(_thenan_sf.o)
                0x0080014f                __thenan_sf
 .data          0x00800157        0x0 c:/winavr-20100110/bin/../lib/gcc/avr/4.3.3/avr5\libgcc.a(_prologue.o)
 .data          0x00800157        0x0 c:/winavr-20100110/bin/../lib/gcc/avr/4.3.3/avr5\libgcc.a(_epilogue.o)
 .data          0x00800157        0x0 c:/winavr-20100110/bin/../lib/gcc/avr/4.3.3/avr5\libgcc.a(_clzsi2.o)
 .data          0x00800157        0x0 c:/winavr-20100110/bin/../lib/gcc/avr/4.3.3/avr5\libgcc.a(_pack_sf.o)
 .data          0x00800157        0x0 c:/winavr-20100110/bin/../lib/gcc/avr/4.3.3/avr5\libgcc.a(_unpack_sf.o)
 .data          0x00800157      0x100 c:/winavr-20100110/bin/../lib/gcc/avr/4.3.3/avr5\libgcc.a(_clz.o)
                0x00800157                __clz_tab
 .data          0x00800257        0x0 C:\WinAVR-20100110\avr\lib\libm.a(sqrt.o)
 .data          0x00800257        0x0 C:\WinAVR-20100110\avr\lib\libm.a(fp_mpack.o)
 .data          0x00800257        0x0 C:\WinAVR-20100110\avr\lib\libm.a(fp_nan.o)
 .data          0x00800257        0x0 C:\WinAVR-20100110\avr\lib\libm.a(fp_norm2.o)
 .data          0x00800257        0x0 C:\WinAVR-20100110\avr\lib\libm.a(fp_split3.o)
 .data          0x00800257        0x6 C:\WinAVR-20100110\avr\lib\libc.a(malloc.o)
                0x00800259                __malloc_heap_start
                0x0080025b                __malloc_heap_end
                0x00800257                __malloc_margin
 .data          0x0080025d        0x0 C:\WinAVR-20100110\avr\lib\libc.a(strlen.o)
 .data          0x0080025d        0x0 C:\WinAVR-20100110\avr\lib\libc.a(itoa.o)
 .data          0x0080025d        0x0 C:\WinAVR-20100110\avr\lib\libc.a(strrev.o)
 *(.data*)
 *(.rodata)
 *(.rodata*)
 *(.gnu.linkonce.d*)
                0x0080025e                . = ALIGN (0x2)
 *fill*         0x0080025d        0x1 00
                0x0080025e                _edata = .
                0x0080025e                PROVIDE (__data_end, .)

.bss            0x0080025e      0x1b0
                0x0080025e                PROVIDE (__bss_start, .)
 *(.bss)
 .bss           0x0080025e        0x0 c:/winavr-20100110/bin/../lib/gcc/avr/4.3.3/../../../../avr/lib/avr5/crtm32.o
 .bss           0x0080025e       0x12 obj\Debug\RP6Examples_20120725f\RP6Lib\RP6base\RP6RobotBaseLib.o
                0x0080025e                mleft_des_dir
                0x00800262                drive_dir
                0x0080025f                mright_des_dir
                0x00800261                mright_dir
                0x00800260                mleft_dir
 .bss           0x00800270        0x6 obj\Debug\RP6Examples_20120725f\RP6Lib\RP6common\RP6I2CslaveTWI.o
                0x00800272                I2CTWI_readBusy
                0x00800270                I2CTWI_dataWasRead
                0x00800273                I2CTWI_writeBusy
                0x00800271                I2CTWI_dataReadFromReg
 .bss           0x00800276        0x6 obj\Debug\RP6Examples_20120725f\RP6Lib\RP6common\RP6uart.o
                0x00800278                read_size
                0x00800277                write_pos
                0x00800279                write_size
                0x00800276                read_pos
 .bss           0x0080027c        0x6 obj\Debug\program\RP6FindCenter\main.o
                0x0080027c                firstSide
                0x00800280                onStartPointSecondRun
                0x0080027e                secondSide
 .bss           0x00800282        0x0 c:/winavr-20100110/bin/../lib/gcc/avr/4.3.3/avr5\libgcc.a(_mulsi3.o)
 .bss           0x00800282        0x0 c:/winavr-20100110/bin/../lib/gcc/avr/4.3.3/avr5\libgcc.a(_udivmodhi4.o)
 .bss           0x00800282        0x0 c:/winavr-20100110/bin/../lib/gcc/avr/4.3.3/avr5\libgcc.a(_udivmodsi4.o)
 .bss           0x00800282        0x0 c:/winavr-20100110/bin/../lib/gcc/avr/4.3.3/avr5\libgcc.a(_exit.o)
 .bss           0x00800282        0x0 c:/winavr-20100110/bin/../lib/gcc/avr/4.3.3/avr5\libgcc.a(_copy_data.o)
 .bss           0x00800282        0x0 c:/winavr-20100110/bin/../lib/gcc/avr/4.3.3/avr5\libgcc.a(_clear_bss.o)
 .bss           0x00800282        0x0 c:/winavr-20100110/bin/../lib/gcc/avr/4.3.3/avr5\libgcc.a(_addsub_sf.o)
 .bss           0x00800282        0x0 c:/winavr-20100110/bin/../lib/gcc/avr/4.3.3/avr5\libgcc.a(_mul_sf.o)
 .bss           0x00800282        0x0 c:/winavr-20100110/bin/../lib/gcc/avr/4.3.3/avr5\libgcc.a(_div_sf.o)
 .bss           0x00800282        0x0 c:/winavr-20100110/bin/../lib/gcc/avr/4.3.3/avr5\libgcc.a(_si_to_sf.o)
 .bss           0x00800282        0x0 c:/winavr-20100110/bin/../lib/gcc/avr/4.3.3/avr5\libgcc.a(_sf_to_si.o)
 .bss           0x00800282        0x0 c:/winavr-20100110/bin/../lib/gcc/avr/4.3.3/avr5\libgcc.a(_thenan_sf.o)
 .bss           0x00800282        0x0 c:/winavr-20100110/bin/../lib/gcc/avr/4.3.3/avr5\libgcc.a(_prologue.o)
 .bss           0x00800282        0x0 c:/winavr-20100110/bin/../lib/gcc/avr/4.3.3/avr5\libgcc.a(_epilogue.o)
 .bss           0x00800282        0x0 c:/winavr-20100110/bin/../lib/gcc/avr/4.3.3/avr5\libgcc.a(_clzsi2.o)
 .bss           0x00800282        0x0 c:/winavr-20100110/bin/../lib/gcc/avr/4.3.3/avr5\libgcc.a(_pack_sf.o)
 .bss           0x00800282        0x0 c:/winavr-20100110/bin/../lib/gcc/avr/4.3.3/avr5\libgcc.a(_unpack_sf.o)
 .bss           0x00800282        0x0 c:/winavr-20100110/bin/../lib/gcc/avr/4.3.3/avr5\libgcc.a(_clz.o)
 .bss           0x00800282        0x0 C:\WinAVR-20100110\avr\lib\libm.a(sqrt.o)
 .bss           0x00800282        0x0 C:\WinAVR-20100110\avr\lib\libm.a(fp_mpack.o)
 .bss           0x00800282        0x0 C:\WinAVR-20100110\avr\lib\libm.a(fp_nan.o)
 .bss           0x00800282        0x0 C:\WinAVR-20100110\avr\lib\libm.a(fp_norm2.o)
 .bss           0x00800282        0x0 C:\WinAVR-20100110\avr\lib\libm.a(fp_split3.o)
 .bss           0x00800282        0x0 C:\WinAVR-20100110\avr\lib\libc.a(malloc.o)
 .bss           0x00800282        0x0 C:\WinAVR-20100110\avr\lib\libc.a(strlen.o)
 .bss           0x00800282        0x0 C:\WinAVR-20100110\avr\lib\libc.a(itoa.o)
 .bss           0x00800282        0x0 C:\WinAVR-20100110\avr\lib\libc.a(strrev.o)
 *(.bss*)
 *(COMMON)
 COMMON         0x00800282       0x6b obj\Debug\RP6Examples_20120725f\RP6Lib\RP6base\RP6RobotBaseLib.o
                0x00800282                bumper_left
                0x00800283                preStop_R
                0x00800285                mright_des_speed
                0x00800287                timer
                0x00800289                mleft_des_speed
                0x0080028b                mleft_des_speed_tmp
                0x0080028d                motion_status
                0x0080028e                sysStatACS
                0x0080028f                ircomm_send
                0x00800290                overcurrent_error_clear
                0x00800291                distanceToMove_R
                0x00800293                acs_pulse
                0x00800294                left_i
                0x00800296                IRCOMM_RC5_data
                0x00800298                motor_control
                0x00800299                leds_on
                0x0080029a                mleft_power
                0x0080029c                mleft_speed
                0x0080029e                preDecelerate_R
                0x008002a0                mright_des_speed_tmp
                0x008002a2                adc1
                0x008002a4                adcLSL
                0x008002a6                acs_timer
                0x008002a8                preStop_L
                0x008002aa                mright_power
                0x008002ac                mright_counter
                0x008002ae                ircomm_data_tmp
                0x008002b0                distanceToMove_L
                0x008002b2                stopwatches
                0x008002c3                overcurrent_timeout
                0x008002c4                obstacle_left
                0x008002c5                overcurrent_errors
                0x008002c6                overcurrent_timer
                0x008002c7                statusLEDs
                0x008002c8                mright_ptmp
                0x008002c9                ircomm_data
                0x008002cb                adcLSR
                0x008002cd                speed_adjust_timer
                0x008002ce                obstacle_right
                0x008002cf                speed_timer
                0x008002d0                right_i
                0x008002d2                bumper_timer
                0x008002d3                mright_dist
                0x008002d5                preDecelerate_L
                0x008002d7                mleft_counter
                0x008002d9                adc0
                0x008002db                delay_timer
                0x008002dc                adcMotorCurrentRight
                0x008002de                ms_timer
                0x008002df                mright_speed
                0x008002e1                mleft_dist
                0x008002e3                bumper_right
                0x008002e4                acs_event_counter
                0x008002e5                motion_status_tmp
                0x008002e6                adcBat
                0x008002e8                IRCOMM_RC5_data_ok
                0x008002ea                mleft_ptmp
                0x008002eb                adcMotorCurrentLeft
 COMMON         0x008002ed       0x41 obj\Debug\RP6Examples_20120725f\RP6Lib\RP6common\RP6I2CslaveTWI.o
                0x008002ed                I2CTWI_genCallCMD
                0x008002ee                I2CTWI_writeRegisters
                0x008002fe                I2CTWI_readRegisters
 COMMON         0x0080032e       0x22 obj\Debug\RP6Examples_20120725f\RP6Lib\RP6common\RP6uart.o
                0x0080032e                uart_status
                0x0080032f                uart_receive_buffer
 COMMON         0x00800350       0xba obj\Debug\program\RP6FindCenter\main.o
                0x00800350                tanAlpha
                0x00800354                RP6Settings
                0x00800368                RP6State
                0x0080036a                firstTracks
                0x008003ba                secondTracks
 COMMON         0x0080040a        0x4 C:\WinAVR-20100110\avr\lib\libc.a(malloc.o)
                0x0080040a                __brkval
                0x0080040c                __flp
                0x0080040e                PROVIDE (__bss_end, .)
                0x00005230                __data_load_start = LOADADDR (.data)
                0x0000542e                __data_load_end = (__data_load_start + SIZEOF (.data))

.noinit         0x0080040e        0x0
                0x0080040e                PROVIDE (__noinit_start, .)
 *(.noinit*)
                0x0080040e                PROVIDE (__noinit_end, .)
                0x0080040e                _end = .
                0x0080040e                PROVIDE (__heap_start, .)

.eeprom         0x00810000        0x0
 *(.eeprom*)
                0x00810000                __eeprom_end = .

.fuse
 *(.fuse)
 *(.lfuse)
 *(.hfuse)
 *(.efuse)

.lock
 *(.lock*)

.signature
 *(.signature*)

.stab
 *(.stab)

.stabstr
 *(.stabstr)

.stab.excl
 *(.stab.excl)

.stab.exclstr
 *(.stab.exclstr)

.stab.index
 *(.stab.index)

.stab.indexstr
 *(.stab.indexstr)

.comment
 *(.comment)

.debug
 *(.debug)

.line
 *(.line)

.debug_srcinfo
 *(.debug_srcinfo)

.debug_sfnames
 *(.debug_sfnames)

.debug_aranges  0x00000000      0x180
 *(.debug_aranges)
 .debug_aranges
                0x00000000       0x20 obj\Debug\RP6Examples_20120725f\RP6Lib\RP6base\RP6RobotBaseLib.o
 .debug_aranges
                0x00000020       0x20 obj\Debug\RP6Examples_20120725f\RP6Lib\RP6common\RP6I2CslaveTWI.o
 .debug_aranges
                0x00000040       0x20 obj\Debug\RP6Examples_20120725f\RP6Lib\RP6common\RP6uart.o
 .debug_aranges
                0x00000060       0x20 obj\Debug\program\RP6FindCenter\main.o
 .debug_aranges
                0x00000080       0x20 c:/winavr-20100110/bin/../lib/gcc/avr/4.3.3/avr5\libgcc.a(_addsub_sf.o)
 .debug_aranges
                0x000000a0       0x20 c:/winavr-20100110/bin/../lib/gcc/avr/4.3.3/avr5\libgcc.a(_mul_sf.o)
 .debug_aranges
                0x000000c0       0x20 c:/winavr-20100110/bin/../lib/gcc/avr/4.3.3/avr5\libgcc.a(_div_sf.o)
 .debug_aranges
                0x000000e0       0x20 c:/winavr-20100110/bin/../lib/gcc/avr/4.3.3/avr5\libgcc.a(_si_to_sf.o)
 .debug_aranges
                0x00000100       0x20 c:/winavr-20100110/bin/../lib/gcc/avr/4.3.3/avr5\libgcc.a(_sf_to_si.o)
 .debug_aranges
                0x00000120       0x20 c:/winavr-20100110/bin/../lib/gcc/avr/4.3.3/avr5\libgcc.a(_clzsi2.o)
 .debug_aranges
                0x00000140       0x20 c:/winavr-20100110/bin/../lib/gcc/avr/4.3.3/avr5\libgcc.a(_pack_sf.o)
 .debug_aranges
                0x00000160       0x20 c:/winavr-20100110/bin/../lib/gcc/avr/4.3.3/avr5\libgcc.a(_unpack_sf.o)

.debug_pubnames
                0x00000000      0xd96
 *(.debug_pubnames)
 .debug_pubnames
                0x00000000      0x829 obj\Debug\RP6Examples_20120725f\RP6Lib\RP6base\RP6RobotBaseLib.o
 .debug_pubnames
                0x00000829       0xdb obj\Debug\RP6Examples_20120725f\RP6Lib\RP6common\RP6I2CslaveTWI.o
 .debug_pubnames
                0x00000904      0x138 obj\Debug\RP6Examples_20120725f\RP6Lib\RP6common\RP6uart.o
 .debug_pubnames
                0x00000a3c      0x20d obj\Debug\program\RP6FindCenter\main.o
 .debug_pubnames
                0x00000c49       0x2c c:/winavr-20100110/bin/../lib/gcc/avr/4.3.3/avr5\libgcc.a(_addsub_sf.o)
 .debug_pubnames
                0x00000c75       0x1f c:/winavr-20100110/bin/../lib/gcc/avr/4.3.3/avr5\libgcc.a(_mul_sf.o)
 .debug_pubnames
                0x00000c94       0x1f c:/winavr-20100110/bin/../lib/gcc/avr/4.3.3/avr5\libgcc.a(_div_sf.o)
 .debug_pubnames
                0x00000cb3       0x22 c:/winavr-20100110/bin/../lib/gcc/avr/4.3.3/avr5\libgcc.a(_si_to_sf.o)
 .debug_pubnames
                0x00000cd5       0x20 c:/winavr-20100110/bin/../lib/gcc/avr/4.3.3/avr5\libgcc.a(_sf_to_si.o)
 .debug_pubnames
                0x00000cf5       0x22 c:/winavr-20100110/bin/../lib/gcc/avr/4.3.3/avr5\libgcc.a(_thenan_sf.o)
 .debug_pubnames
                0x00000d17       0x1f c:/winavr-20100110/bin/../lib/gcc/avr/4.3.3/avr5\libgcc.a(_clzsi2.o)
 .debug_pubnames
                0x00000d36       0x1f c:/winavr-20100110/bin/../lib/gcc/avr/4.3.3/avr5\libgcc.a(_pack_sf.o)
 .debug_pubnames
                0x00000d55       0x21 c:/winavr-20100110/bin/../lib/gcc/avr/4.3.3/avr5\libgcc.a(_unpack_sf.o)
 .debug_pubnames
                0x00000d76       0x20 c:/winavr-20100110/bin/../lib/gcc/avr/4.3.3/avr5\libgcc.a(_clz.o)

.debug_info     0x00000000     0x3990
 *(.debug_info)
 .debug_info    0x00000000     0x1336 obj\Debug\RP6Examples_20120725f\RP6Lib\RP6base\RP6RobotBaseLib.o
 .debug_info    0x00001336      0x176 obj\Debug\RP6Examples_20120725f\RP6Lib\RP6common\RP6I2CslaveTWI.o
 .debug_info    0x000014ac      0x39c obj\Debug\RP6Examples_20120725f\RP6Lib\RP6common\RP6uart.o
 .debug_info    0x00001848      0x77a obj\Debug\program\RP6FindCenter\main.o
 .debug_info    0x00001fc2      0x47a c:/winavr-20100110/bin/../lib/gcc/avr/4.3.3/avr5\libgcc.a(_addsub_sf.o)
 .debug_info    0x0000243c      0x485 c:/winavr-20100110/bin/../lib/gcc/avr/4.3.3/avr5\libgcc.a(_mul_sf.o)
 .debug_info    0x000028c1      0x3fc c:/winavr-20100110/bin/../lib/gcc/avr/4.3.3/avr5\libgcc.a(_div_sf.o)
 .debug_info    0x00002cbd      0x207 c:/winavr-20100110/bin/../lib/gcc/avr/4.3.3/avr5\libgcc.a(_si_to_sf.o)
 .debug_info    0x00002ec4      0x2b0 c:/winavr-20100110/bin/../lib/gcc/avr/4.3.3/avr5\libgcc.a(_sf_to_si.o)
 .debug_info    0x00003174      0x12c c:/winavr-20100110/bin/../lib/gcc/avr/4.3.3/avr5\libgcc.a(_thenan_sf.o)
 .debug_info    0x000032a0      0x117 c:/winavr-20100110/bin/../lib/gcc/avr/4.3.3/avr5\libgcc.a(_clzsi2.o)
 .debug_info    0x000033b7      0x2df c:/winavr-20100110/bin/../lib/gcc/avr/4.3.3/avr5\libgcc.a(_pack_sf.o)
 .debug_info    0x00003696      0x251 c:/winavr-20100110/bin/../lib/gcc/avr/4.3.3/avr5\libgcc.a(_unpack_sf.o)
 .debug_info    0x000038e7       0xa9 c:/winavr-20100110/bin/../lib/gcc/avr/4.3.3/avr5\libgcc.a(_clz.o)
 *(.gnu.linkonce.wi.*)

.debug_abbrev   0x00000000     0x147c
 *(.debug_abbrev)
 .debug_abbrev  0x00000000      0x279 obj\Debug\RP6Examples_20120725f\RP6Lib\RP6base\RP6RobotBaseLib.o
 .debug_abbrev  0x00000279       0x9f obj\Debug\RP6Examples_20120725f\RP6Lib\RP6common\RP6I2CslaveTWI.o
 .debug_abbrev  0x00000318      0x170 obj\Debug\RP6Examples_20120725f\RP6Lib\RP6common\RP6uart.o
 .debug_abbrev  0x00000488      0x223 obj\Debug\program\RP6FindCenter\main.o
 .debug_abbrev  0x000006ab      0x1ea c:/winavr-20100110/bin/../lib/gcc/avr/4.3.3/avr5\libgcc.a(_addsub_sf.o)
 .debug_abbrev  0x00000895      0x21b c:/winavr-20100110/bin/../lib/gcc/avr/4.3.3/avr5\libgcc.a(_mul_sf.o)
 .debug_abbrev  0x00000ab0      0x216 c:/winavr-20100110/bin/../lib/gcc/avr/4.3.3/avr5\libgcc.a(_div_sf.o)
 .debug_abbrev  0x00000cc6      0x148 c:/winavr-20100110/bin/../lib/gcc/avr/4.3.3/avr5\libgcc.a(_si_to_sf.o)
 .debug_abbrev  0x00000e0e      0x17f c:/winavr-20100110/bin/../lib/gcc/avr/4.3.3/avr5\libgcc.a(_sf_to_si.o)
 .debug_abbrev  0x00000f8d       0xad c:/winavr-20100110/bin/../lib/gcc/avr/4.3.3/avr5\libgcc.a(_thenan_sf.o)
 .debug_abbrev  0x0000103a       0xc4 c:/winavr-20100110/bin/../lib/gcc/avr/4.3.3/avr5\libgcc.a(_clzsi2.o)
 .debug_abbrev  0x000010fe      0x1c0 c:/winavr-20100110/bin/../lib/gcc/avr/4.3.3/avr5\libgcc.a(_pack_sf.o)
 .debug_abbrev  0x000012be      0x154 c:/winavr-20100110/bin/../lib/gcc/avr/4.3.3/avr5\libgcc.a(_unpack_sf.o)
 .debug_abbrev  0x00001412       0x6a c:/winavr-20100110/bin/../lib/gcc/avr/4.3.3/avr5\libgcc.a(_clz.o)

.debug_line     0x00000000     0x3008
 *(.debug_line)
 .debug_line    0x00000000     0x15fb obj\Debug\RP6Examples_20120725f\RP6Lib\RP6base\RP6RobotBaseLib.o
 .debug_line    0x000015fb      0x1e2 obj\Debug\RP6Examples_20120725f\RP6Lib\RP6common\RP6I2CslaveTWI.o
 .debug_line    0x000017dd      0x2d3 obj\Debug\RP6Examples_20120725f\RP6Lib\RP6common\RP6uart.o
 .debug_line    0x00001ab0      0x7d7 obj\Debug\program\RP6FindCenter\main.o
 .debug_line    0x00002287      0x2af c:/winavr-20100110/bin/../lib/gcc/avr/4.3.3/avr5\libgcc.a(_addsub_sf.o)
 .debug_line    0x00002536      0x239 c:/winavr-20100110/bin/../lib/gcc/avr/4.3.3/avr5\libgcc.a(_mul_sf.o)
 .debug_line    0x0000276f      0x1d5 c:/winavr-20100110/bin/../lib/gcc/avr/4.3.3/avr5\libgcc.a(_div_sf.o)
 .debug_line    0x00002944      0x135 c:/winavr-20100110/bin/../lib/gcc/avr/4.3.3/avr5\libgcc.a(_si_to_sf.o)
 .debug_line    0x00002a79      0x109 c:/winavr-20100110/bin/../lib/gcc/avr/4.3.3/avr5\libgcc.a(_sf_to_si.o)
 .debug_line    0x00002b82       0x90 c:/winavr-20100110/bin/../lib/gcc/avr/4.3.3/avr5\libgcc.a(_thenan_sf.o)
 .debug_line    0x00002c12       0xa5 c:/winavr-20100110/bin/../lib/gcc/avr/4.3.3/avr5\libgcc.a(_clzsi2.o)
 .debug_line    0x00002cb7      0x18a c:/winavr-20100110/bin/../lib/gcc/avr/4.3.3/avr5\libgcc.a(_pack_sf.o)
 .debug_line    0x00002e41      0x14b c:/winavr-20100110/bin/../lib/gcc/avr/4.3.3/avr5\libgcc.a(_unpack_sf.o)
 .debug_line    0x00002f8c       0x7c c:/winavr-20100110/bin/../lib/gcc/avr/4.3.3/avr5\libgcc.a(_clz.o)

.debug_frame    0x00000000      0x660
 *(.debug_frame)
 .debug_frame   0x00000000      0x340 obj\Debug\RP6Examples_20120725f\RP6Lib\RP6base\RP6RobotBaseLib.o
 .debug_frame   0x00000340       0x30 obj\Debug\RP6Examples_20120725f\RP6Lib\RP6common\RP6I2CslaveTWI.o
 .debug_frame   0x00000370       0xc0 obj\Debug\RP6Examples_20120725f\RP6Lib\RP6common\RP6uart.o
 .debug_frame   0x00000430      0x110 obj\Debug\program\RP6FindCenter\main.o
 .debug_frame   0x00000540       0x40 c:/winavr-20100110/bin/../lib/gcc/avr/4.3.3/avr5\libgcc.a(_addsub_sf.o)
 .debug_frame   0x00000580       0x20 c:/winavr-20100110/bin/../lib/gcc/avr/4.3.3/avr5\libgcc.a(_mul_sf.o)
 .debug_frame   0x000005a0       0x20 c:/winavr-20100110/bin/../lib/gcc/avr/4.3.3/avr5\libgcc.a(_div_sf.o)
 .debug_frame   0x000005c0       0x20 c:/winavr-20100110/bin/../lib/gcc/avr/4.3.3/avr5\libgcc.a(_si_to_sf.o)
 .debug_frame   0x000005e0       0x20 c:/winavr-20100110/bin/../lib/gcc/avr/4.3.3/avr5\libgcc.a(_sf_to_si.o)
 .debug_frame   0x00000600       0x20 c:/winavr-20100110/bin/../lib/gcc/avr/4.3.3/avr5\libgcc.a(_clzsi2.o)
 .debug_frame   0x00000620       0x20 c:/winavr-20100110/bin/../lib/gcc/avr/4.3.3/avr5\libgcc.a(_pack_sf.o)
 .debug_frame   0x00000640       0x20 c:/winavr-20100110/bin/../lib/gcc/avr/4.3.3/avr5\libgcc.a(_unpack_sf.o)

.debug_str      0x00000000     0x120e
 *(.debug_str)
 .debug_str     0x00000000      0xa0b obj\Debug\RP6Examples_20120725f\RP6Lib\RP6base\RP6RobotBaseLib.o
                                0xaa1 (size before relaxing)
 .debug_str     0x00000a0b      0x106 obj\Debug\RP6Examples_20120725f\RP6Lib\RP6common\RP6I2CslaveTWI.o
                                0x1ea (size before relaxing)
 .debug_str     0x00000b11      0x161 obj\Debug\RP6Examples_20120725f\RP6Lib\RP6common\RP6uart.o
                                0x270 (size before relaxing)
 .debug_str     0x00000c72      0x31d obj\Debug\program\RP6FindCenter\main.o
                                0x467 (size before relaxing)
 .debug_str     0x00000f8f      0x184 c:/winavr-20100110/bin/../lib/gcc/avr/4.3.3/avr5\libgcc.a(_addsub_sf.o)
                                0x206 (size before relaxing)
 .debug_str     0x00001113       0x27 c:/winavr-20100110/bin/../lib/gcc/avr/4.3.3/avr5\libgcc.a(_mul_sf.o)
                                0x1bf (size before relaxing)
 .debug_str     0x0000113a       0x35 c:/winavr-20100110/bin/../lib/gcc/avr/4.3.3/avr5\libgcc.a(_div_sf.o)
                                0x1c8 (size before relaxing)
 .debug_str     0x0000116f       0x1e c:/winavr-20100110/bin/../lib/gcc/avr/4.3.3/avr5\libgcc.a(_si_to_sf.o)
                                0x17b (size before relaxing)
 .debug_str     0x0000118d        0xa c:/winavr-20100110/bin/../lib/gcc/avr/4.3.3/avr5\libgcc.a(_sf_to_si.o)
                                0x19e (size before relaxing)
 .debug_str     0x00000000      0x103 c:/winavr-20100110/bin/../lib/gcc/avr/4.3.3/avr5\libgcc.a(_thenan_sf.o)
 .debug_str     0x00001197       0x5c c:/winavr-20100110/bin/../lib/gcc/avr/4.3.3/avr5\libgcc.a(_clzsi2.o)
                                0x111 (size before relaxing)
 .debug_str     0x000011f3       0x10 c:/winavr-20100110/bin/../lib/gcc/avr/4.3.3/avr5\libgcc.a(_pack_sf.o)
                                0x19d (size before relaxing)
 .debug_str     0x00001203        0xb c:/winavr-20100110/bin/../lib/gcc/avr/4.3.3/avr5\libgcc.a(_unpack_sf.o)
                                0x17f (size before relaxing)
 .debug_str     0x00000000       0xf4 c:/winavr-20100110/bin/../lib/gcc/avr/4.3.3/avr5\libgcc.a(_clz.o)

.debug_loc      0x00000000      0x896
 *(.debug_loc)
 .debug_loc     0x00000000      0x32a c:/winavr-20100110/bin/../lib/gcc/avr/4.3.3/avr5\libgcc.a(_addsub_sf.o)
 .debug_loc     0x0000032a      0x104 c:/winavr-20100110/bin/../lib/gcc/avr/4.3.3/avr5\libgcc.a(_mul_sf.o)
 .debug_loc     0x0000042e       0xc0 c:/winavr-20100110/bin/../lib/gcc/avr/4.3.3/avr5\libgcc.a(_div_sf.o)
 .debug_loc     0x000004ee       0xac c:/winavr-20100110/bin/../lib/gcc/avr/4.3.3/avr5\libgcc.a(_si_to_sf.o)
 .debug_loc     0x0000059a       0x7e c:/winavr-20100110/bin/../lib/gcc/avr/4.3.3/avr5\libgcc.a(_sf_to_si.o)
 .debug_loc     0x00000618       0x94 c:/winavr-20100110/bin/../lib/gcc/avr/4.3.3/avr5\libgcc.a(_clzsi2.o)
 .debug_loc     0x000006ac      0x13e c:/winavr-20100110/bin/../lib/gcc/avr/4.3.3/avr5\libgcc.a(_pack_sf.o)
 .debug_loc     0x000007ea       0xac c:/winavr-20100110/bin/../lib/gcc/avr/4.3.3/avr5\libgcc.a(_unpack_sf.o)

.debug_macinfo
 *(.debug_macinfo)
OUTPUT(bin\Debug\FindCenter.elf elf32-avr)
LOAD linker stubs

.debug_ranges   0x00000000       0x50
 .debug_ranges  0x00000000       0x50 c:/winavr-20100110/bin/../lib/gcc/avr/4.3.3/avr5\libgcc.a(_mul_sf.o)

Cross Reference Table

Symbol                                            File
ACS_setStateChangedHandler                        obj\Debug\RP6Examples_20120725f\RP6Lib\RP6base\RP6RobotBaseLib.o
ACS_stateChanged_DUMMY                            obj\Debug\RP6Examples_20120725f\RP6Lib\RP6base\RP6RobotBaseLib.o
BUMPERS_setStateChangedHandler                    obj\Debug\RP6Examples_20120725f\RP6Lib\RP6base\RP6RobotBaseLib.o
BUMPERS_stateChanged_DUMMY                        obj\Debug\RP6Examples_20120725f\RP6Lib\RP6base\RP6RobotBaseLib.o
I2CTWI_dataReadFromReg                            obj\Debug\RP6Examples_20120725f\RP6Lib\RP6common\RP6I2CslaveTWI.o
I2CTWI_dataWasRead                                obj\Debug\RP6Examples_20120725f\RP6Lib\RP6common\RP6I2CslaveTWI.o
I2CTWI_genCallCMD                                 obj\Debug\RP6Examples_20120725f\RP6Lib\RP6common\RP6I2CslaveTWI.o
I2CTWI_initSlave                                  obj\Debug\RP6Examples_20120725f\RP6Lib\RP6common\RP6I2CslaveTWI.o
I2CTWI_readBusy                                   obj\Debug\RP6Examples_20120725f\RP6Lib\RP6common\RP6I2CslaveTWI.o
I2CTWI_readRegisters                              obj\Debug\RP6Examples_20120725f\RP6Lib\RP6common\RP6I2CslaveTWI.o
I2CTWI_writeBusy                                  obj\Debug\RP6Examples_20120725f\RP6Lib\RP6common\RP6I2CslaveTWI.o
I2CTWI_writeRegisters                             obj\Debug\RP6Examples_20120725f\RP6Lib\RP6common\RP6I2CslaveTWI.o
IRCOMM_RC5_data                                   obj\Debug\RP6Examples_20120725f\RP6Lib\RP6base\RP6RobotBaseLib.o
IRCOMM_RC5_data_ok                                obj\Debug\RP6Examples_20120725f\RP6Lib\RP6base\RP6RobotBaseLib.o
IRCOMM_RC5dataReady_DUMMY                         obj\Debug\RP6Examples_20120725f\RP6Lib\RP6base\RP6RobotBaseLib.o
IRCOMM_sendRC5                                    obj\Debug\RP6Examples_20120725f\RP6Lib\RP6base\RP6RobotBaseLib.o
IRCOMM_setRC5DataReadyHandler                     obj\Debug\RP6Examples_20120725f\RP6Lib\RP6base\RP6RobotBaseLib.o
MOTIONCONTROL_setStateChangedHandler              obj\Debug\RP6Examples_20120725f\RP6Lib\RP6base\RP6RobotBaseLib.o
MOTIONCONTROL_stateChanged_DUMMY                  obj\Debug\RP6Examples_20120725f\RP6Lib\RP6base\RP6RobotBaseLib.o
RP6Settings                                       obj\Debug\program\RP6FindCenter\main.o
RP6State                                          obj\Debug\program\RP6FindCenter\main.o
__addsf3                                          c:/winavr-20100110/bin/../lib/gcc/avr/4.3.3/avr5\libgcc.a(_addsub_sf.o)
                                                  obj\Debug\program\RP6FindCenter\main.o
__bad_interrupt                                   c:/winavr-20100110/bin/../lib/gcc/avr/4.3.3/../../../../avr/lib/avr5/crtm32.o
__brkval                                          C:\WinAVR-20100110\avr\lib\libc.a(malloc.o)
__bss_end                                         c:/winavr-20100110/bin/../lib/gcc/avr/4.3.3/avr5\libgcc.a(_clear_bss.o)
__bss_start                                       c:/winavr-20100110/bin/../lib/gcc/avr/4.3.3/avr5\libgcc.a(_clear_bss.o)
__clz_tab                                         c:/winavr-20100110/bin/../lib/gcc/avr/4.3.3/avr5\libgcc.a(_clz.o)
                                                  c:/winavr-20100110/bin/../lib/gcc/avr/4.3.3/avr5\libgcc.a(_clzsi2.o)
__clzsi2                                          c:/winavr-20100110/bin/../lib/gcc/avr/4.3.3/avr5\libgcc.a(_clzsi2.o)
                                                  c:/winavr-20100110/bin/../lib/gcc/avr/4.3.3/avr5\libgcc.a(_si_to_sf.o)
__data_end                                        c:/winavr-20100110/bin/../lib/gcc/avr/4.3.3/avr5\libgcc.a(_copy_data.o)
__data_load_start                                 c:/winavr-20100110/bin/../lib/gcc/avr/4.3.3/avr5\libgcc.a(_copy_data.o)
__data_start                                      c:/winavr-20100110/bin/../lib/gcc/avr/4.3.3/avr5\libgcc.a(_copy_data.o)
__divsf3                                          c:/winavr-20100110/bin/../lib/gcc/avr/4.3.3/avr5\libgcc.a(_div_sf.o)
                                                  obj\Debug\program\RP6FindCenter\main.o
__do_clear_bss                                    c:/winavr-20100110/bin/../lib/gcc/avr/4.3.3/avr5\libgcc.a(_clear_bss.o)
                                                  C:\WinAVR-20100110\avr\lib\libc.a(malloc.o)
                                                  obj\Debug\program\RP6FindCenter\main.o
                                                  obj\Debug\RP6Examples_20120725f\RP6Lib\RP6common\RP6uart.o
                                                  obj\Debug\RP6Examples_20120725f\RP6Lib\RP6common\RP6I2CslaveTWI.o
                                                  obj\Debug\RP6Examples_20120725f\RP6Lib\RP6base\RP6RobotBaseLib.o
__do_copy_data                                    c:/winavr-20100110/bin/../lib/gcc/avr/4.3.3/avr5\libgcc.a(_copy_data.o)
                                                  C:\WinAVR-20100110\avr\lib\libc.a(malloc.o)
                                                  c:/winavr-20100110/bin/../lib/gcc/avr/4.3.3/avr5\libgcc.a(_clz.o)
                                                  c:/winavr-20100110/bin/../lib/gcc/avr/4.3.3/avr5\libgcc.a(_thenan_sf.o)
                                                  obj\Debug\program\RP6FindCenter\main.o
                                                  obj\Debug\RP6Examples_20120725f\RP6Lib\RP6base\RP6RobotBaseLib.o
__epilogue_restores__                             c:/winavr-20100110/bin/../lib/gcc/avr/4.3.3/avr5\libgcc.a(_epilogue.o)
                                                  c:/winavr-20100110/bin/../lib/gcc/avr/4.3.3/avr5\libgcc.a(_sf_to_si.o)
                                                  c:/winavr-20100110/bin/../lib/gcc/avr/4.3.3/avr5\libgcc.a(_si_to_sf.o)
                                                  c:/winavr-20100110/bin/../lib/gcc/avr/4.3.3/avr5\libgcc.a(_div_sf.o)
                                                  c:/winavr-20100110/bin/../lib/gcc/avr/4.3.3/avr5\libgcc.a(_mul_sf.o)
                                                  c:/winavr-20100110/bin/../lib/gcc/avr/4.3.3/avr5\libgcc.a(_addsub_sf.o)
__fixsfsi                                         c:/winavr-20100110/bin/../lib/gcc/avr/4.3.3/avr5\libgcc.a(_sf_to_si.o)
                                                  obj\Debug\program\RP6FindCenter\main.o
__floatsisf                                       c:/winavr-20100110/bin/../lib/gcc/avr/4.3.3/avr5\libgcc.a(_si_to_sf.o)
                                                  obj\Debug\program\RP6FindCenter\main.o
__flp                                             C:\WinAVR-20100110\avr\lib\libc.a(malloc.o)
__fp_mpack                                        C:\WinAVR-20100110\avr\lib\libm.a(fp_mpack.o)
                                                  C:\WinAVR-20100110\avr\lib\libm.a(sqrt.o)
__fp_mpack_finite                                 C:\WinAVR-20100110\avr\lib\libm.a(fp_mpack.o)
__fp_nan                                          C:\WinAVR-20100110\avr\lib\libm.a(fp_nan.o)
                                                  C:\WinAVR-20100110\avr\lib\libm.a(sqrt.o)
__fp_norm2                                        C:\WinAVR-20100110\avr\lib\libm.a(fp_norm2.o)
                                                  C:\WinAVR-20100110\avr\lib\libm.a(sqrt.o)
__fp_split3                                       C:\WinAVR-20100110\avr\lib\libm.a(fp_split3.o)
__fp_splitA                                       C:\WinAVR-20100110\avr\lib\libm.a(fp_split3.o)
                                                  C:\WinAVR-20100110\avr\lib\libm.a(sqrt.o)
__heap_end                                        c:/winavr-20100110/bin/../lib/gcc/avr/4.3.3/../../../../avr/lib/avr5/crtm32.o
                                                  C:\WinAVR-20100110\avr\lib\libc.a(malloc.o)
__heap_start                                      C:\WinAVR-20100110\avr\lib\libc.a(malloc.o)
__init                                            c:/winavr-20100110/bin/../lib/gcc/avr/4.3.3/../../../../avr/lib/avr5/crtm32.o
__malloc_heap_end                                 C:\WinAVR-20100110\avr\lib\libc.a(malloc.o)
__malloc_heap_start                               C:\WinAVR-20100110\avr\lib\libc.a(malloc.o)
__malloc_margin                                   C:\WinAVR-20100110\avr\lib\libc.a(malloc.o)
__mulsf3                                          c:/winavr-20100110/bin/../lib/gcc/avr/4.3.3/avr5\libgcc.a(_mul_sf.o)
                                                  obj\Debug\program\RP6FindCenter\main.o
__mulsi3                                          c:/winavr-20100110/bin/../lib/gcc/avr/4.3.3/avr5\libgcc.a(_mulsi3.o)
                                                  obj\Debug\RP6Examples_20120725f\RP6Lib\RP6base\RP6RobotBaseLib.o
__pack_f                                          c:/winavr-20100110/bin/../lib/gcc/avr/4.3.3/avr5\libgcc.a(_pack_sf.o)
                                                  c:/winavr-20100110/bin/../lib/gcc/avr/4.3.3/avr5\libgcc.a(_si_to_sf.o)
                                                  c:/winavr-20100110/bin/../lib/gcc/avr/4.3.3/avr5\libgcc.a(_div_sf.o)
                                                  c:/winavr-20100110/bin/../lib/gcc/avr/4.3.3/avr5\libgcc.a(_mul_sf.o)
                                                  c:/winavr-20100110/bin/../lib/gcc/avr/4.3.3/avr5\libgcc.a(_addsub_sf.o)
__prologue_saves__                                c:/winavr-20100110/bin/../lib/gcc/avr/4.3.3/avr5\libgcc.a(_prologue.o)
                                                  c:/winavr-20100110/bin/../lib/gcc/avr/4.3.3/avr5\libgcc.a(_sf_to_si.o)
                                                  c:/winavr-20100110/bin/../lib/gcc/avr/4.3.3/avr5\libgcc.a(_si_to_sf.o)
                                                  c:/winavr-20100110/bin/../lib/gcc/avr/4.3.3/avr5\libgcc.a(_div_sf.o)
                                                  c:/winavr-20100110/bin/../lib/gcc/avr/4.3.3/avr5\libgcc.a(_mul_sf.o)
                                                  c:/winavr-20100110/bin/../lib/gcc/avr/4.3.3/avr5\libgcc.a(_addsub_sf.o)
__stack                                           c:/winavr-20100110/bin/../lib/gcc/avr/4.3.3/../../../../avr/lib/avr5/crtm32.o
__subsf3                                          c:/winavr-20100110/bin/../lib/gcc/avr/4.3.3/avr5\libgcc.a(_addsub_sf.o)
                                                  obj\Debug\program\RP6FindCenter\main.o
__thenan_sf                                       c:/winavr-20100110/bin/../lib/gcc/avr/4.3.3/avr5\libgcc.a(_thenan_sf.o)
                                                  c:/winavr-20100110/bin/../lib/gcc/avr/4.3.3/avr5\libgcc.a(_div_sf.o)
                                                  c:/winavr-20100110/bin/../lib/gcc/avr/4.3.3/avr5\libgcc.a(_mul_sf.o)
                                                  c:/winavr-20100110/bin/../lib/gcc/avr/4.3.3/avr5\libgcc.a(_addsub_sf.o)
__udivmodhi4                                      c:/winavr-20100110/bin/../lib/gcc/avr/4.3.3/avr5\libgcc.a(_udivmodhi4.o)
                                                  C:\WinAVR-20100110\avr\lib\libc.a(itoa.o)
                                                  obj\Debug\RP6Examples_20120725f\RP6Lib\RP6base\RP6RobotBaseLib.o
__udivmodsi4                                      c:/winavr-20100110/bin/../lib/gcc/avr/4.3.3/avr5\libgcc.a(_udivmodsi4.o)
                                                  obj\Debug\RP6Examples_20120725f\RP6Lib\RP6base\RP6RobotBaseLib.o
__unpack_f                                        c:/winavr-20100110/bin/../lib/gcc/avr/4.3.3/avr5\libgcc.a(_unpack_sf.o)
                                                  c:/winavr-20100110/bin/../lib/gcc/avr/4.3.3/avr5\libgcc.a(_sf_to_si.o)
                                                  c:/winavr-20100110/bin/../lib/gcc/avr/4.3.3/avr5\libgcc.a(_div_sf.o)
                                                  c:/winavr-20100110/bin/../lib/gcc/avr/4.3.3/avr5\libgcc.a(_mul_sf.o)
                                                  c:/winavr-20100110/bin/../lib/gcc/avr/4.3.3/avr5\libgcc.a(_addsub_sf.o)
__vector_1                                        obj\Debug\RP6Examples_20120725f\RP6Lib\RP6base\RP6RobotBaseLib.o
                                                  c:/winavr-20100110/bin/../lib/gcc/avr/4.3.3/../../../../avr/lib/avr5/crtm32.o
__vector_10                                       obj\Debug\RP6Examples_20120725f\RP6Lib\RP6base\RP6RobotBaseLib.o
                                                  c:/winavr-20100110/bin/../lib/gcc/avr/4.3.3/../../../../avr/lib/avr5/crtm32.o
__vector_11                                       c:/winavr-20100110/bin/../lib/gcc/avr/4.3.3/../../../../avr/lib/avr5/crtm32.o
__vector_12                                       c:/winavr-20100110/bin/../lib/gcc/avr/4.3.3/../../../../avr/lib/avr5/crtm32.o
__vector_13                                       obj\Debug\RP6Examples_20120725f\RP6Lib\RP6common\RP6uart.o
                                                  c:/winavr-20100110/bin/../lib/gcc/avr/4.3.3/../../../../avr/lib/avr5/crtm32.o
__vector_14                                       c:/winavr-20100110/bin/../lib/gcc/avr/4.3.3/../../../../avr/lib/avr5/crtm32.o
__vector_15                                       c:/winavr-20100110/bin/../lib/gcc/avr/4.3.3/../../../../avr/lib/avr5/crtm32.o
__vector_16                                       c:/winavr-20100110/bin/../lib/gcc/avr/4.3.3/../../../../avr/lib/avr5/crtm32.o
__vector_17                                       c:/winavr-20100110/bin/../lib/gcc/avr/4.3.3/../../../../avr/lib/avr5/crtm32.o
__vector_18                                       c:/winavr-20100110/bin/../lib/gcc/avr/4.3.3/../../../../avr/lib/avr5/crtm32.o
__vector_19                                       obj\Debug\RP6Examples_20120725f\RP6Lib\RP6common\RP6I2CslaveTWI.o
                                                  c:/winavr-20100110/bin/../lib/gcc/avr/4.3.3/../../../../avr/lib/avr5/crtm32.o
__vector_2                                        obj\Debug\RP6Examples_20120725f\RP6Lib\RP6base\RP6RobotBaseLib.o
                                                  c:/winavr-20100110/bin/../lib/gcc/avr/4.3.3/../../../../avr/lib/avr5/crtm32.o
__vector_20                                       c:/winavr-20100110/bin/../lib/gcc/avr/4.3.3/../../../../avr/lib/avr5/crtm32.o
__vector_3                                        obj\Debug\RP6Examples_20120725f\RP6Lib\RP6base\RP6RobotBaseLib.o
                                                  c:/winavr-20100110/bin/../lib/gcc/avr/4.3.3/../../../../avr/lib/avr5/crtm32.o
__vector_4                                        obj\Debug\RP6Examples_20120725f\RP6Lib\RP6base\RP6RobotBaseLib.o
                                                  c:/winavr-20100110/bin/../lib/gcc/avr/4.3.3/../../../../avr/lib/avr5/crtm32.o
__vector_5                                        c:/winavr-20100110/bin/../lib/gcc/avr/4.3.3/../../../../avr/lib/avr5/crtm32.o
__vector_6                                        c:/winavr-20100110/bin/../lib/gcc/avr/4.3.3/../../../../avr/lib/avr5/crtm32.o
__vector_7                                        c:/winavr-20100110/bin/../lib/gcc/avr/4.3.3/../../../../avr/lib/avr5/crtm32.o
__vector_8                                        c:/winavr-20100110/bin/../lib/gcc/avr/4.3.3/../../../../avr/lib/avr5/crtm32.o
__vector_9                                        c:/winavr-20100110/bin/../lib/gcc/avr/4.3.3/../../../../avr/lib/avr5/crtm32.o
__vector_default                                  c:/winavr-20100110/bin/../lib/gcc/avr/4.3.3/../../../../avr/lib/avr5/crtm32.o
__vectors                                         c:/winavr-20100110/bin/../lib/gcc/avr/4.3.3/../../../../avr/lib/avr5/crtm32.o
_exit                                             c:/winavr-20100110/bin/../lib/gcc/avr/4.3.3/avr5\libgcc.a(_exit.o)
acs_event_counter                                 obj\Debug\RP6Examples_20120725f\RP6Lib\RP6base\RP6RobotBaseLib.o
acs_pulse                                         obj\Debug\RP6Examples_20120725f\RP6Lib\RP6base\RP6RobotBaseLib.o
acs_state                                         obj\Debug\RP6Examples_20120725f\RP6Lib\RP6base\RP6RobotBaseLib.o
acs_timer                                         obj\Debug\RP6Examples_20120725f\RP6Lib\RP6base\RP6RobotBaseLib.o
adc0                                              obj\Debug\RP6Examples_20120725f\RP6Lib\RP6base\RP6RobotBaseLib.o
adc1                                              obj\Debug\RP6Examples_20120725f\RP6Lib\RP6base\RP6RobotBaseLib.o
adcBat                                            obj\Debug\RP6Examples_20120725f\RP6Lib\RP6base\RP6RobotBaseLib.o
adcLSL                                            obj\Debug\RP6Examples_20120725f\RP6Lib\RP6base\RP6RobotBaseLib.o
adcLSR                                            obj\Debug\RP6Examples_20120725f\RP6Lib\RP6base\RP6RobotBaseLib.o
adcMotorCurrentLeft                               obj\Debug\RP6Examples_20120725f\RP6Lib\RP6base\RP6RobotBaseLib.o
adcMotorCurrentRight                              obj\Debug\RP6Examples_20120725f\RP6Lib\RP6base\RP6RobotBaseLib.o
bumper_left                                       obj\Debug\RP6Examples_20120725f\RP6Lib\RP6base\RP6RobotBaseLib.o
bumper_right                                      obj\Debug\RP6Examples_20120725f\RP6Lib\RP6base\RP6RobotBaseLib.o
bumper_timer                                      obj\Debug\RP6Examples_20120725f\RP6Lib\RP6base\RP6RobotBaseLib.o
calcWithFourTracks                                obj\Debug\program\RP6FindCenter\main.o
calcWithThreeTracks                               obj\Debug\program\RP6FindCenter\main.o
calcWithTwoTracks                                 obj\Debug\program\RP6FindCenter\main.o
changeDirection                                   obj\Debug\RP6Examples_20120725f\RP6Lib\RP6base\RP6RobotBaseLib.o
checkThreeTracks                                  obj\Debug\program\RP6FindCenter\main.o
checkTwoNotAdjacentCornerTracks                   obj\Debug\program\RP6FindCenter\main.o
checkTwoTracks                                    obj\Debug\program\RP6FindCenter\main.o
clearReceptionBuffer                              obj\Debug\RP6Examples_20120725f\RP6Lib\RP6common\RP6uart.o
delayCycles                                       obj\Debug\RP6Examples_20120725f\RP6Lib\RP6base\RP6RobotBaseLib.o
delay_timer                                       obj\Debug\RP6Examples_20120725f\RP6Lib\RP6base\RP6RobotBaseLib.o
disableACS                                        obj\Debug\RP6Examples_20120725f\RP6Lib\RP6base\RP6RobotBaseLib.o
disablePowerOnWarning                             obj\Debug\RP6Examples_20120725f\RP6Lib\RP6base\RP6RobotBaseLib.o
distanceToMove_L                                  obj\Debug\RP6Examples_20120725f\RP6Lib\RP6base\RP6RobotBaseLib.o
distanceToMove_R                                  obj\Debug\RP6Examples_20120725f\RP6Lib\RP6base\RP6RobotBaseLib.o
drive_dir                                         obj\Debug\RP6Examples_20120725f\RP6Lib\RP6base\RP6RobotBaseLib.o
emergencyShutdown                                 obj\Debug\RP6Examples_20120725f\RP6Lib\RP6base\RP6RobotBaseLib.o
enableACS                                         obj\Debug\RP6Examples_20120725f\RP6Lib\RP6base\RP6RobotBaseLib.o
enablePowerOnWarning                              obj\Debug\RP6Examples_20120725f\RP6Lib\RP6base\RP6RobotBaseLib.o
evalSettings                                      obj\Debug\program\RP6FindCenter\main.o
exit                                              c:/winavr-20100110/bin/../lib/gcc/avr/4.3.3/avr5\libgcc.a(_exit.o)
                                                  c:/winavr-20100110/bin/../lib/gcc/avr/4.3.3/../../../../avr/lib/avr5/crtm32.o
extIntOFF                                         obj\Debug\RP6Examples_20120725f\RP6Lib\RP6base\RP6RobotBaseLib.o
extIntON                                          obj\Debug\RP6Examples_20120725f\RP6Lib\RP6base\RP6RobotBaseLib.o
firstSide                                         obj\Debug\program\RP6FindCenter\main.o
firstTrackIsCrossTrack                            obj\Debug\program\RP6FindCenter\main.o
firstTracks                                       obj\Debug\program\RP6FindCenter\main.o
free                                              C:\WinAVR-20100110\avr\lib\libc.a(malloc.o)
                                                  obj\Debug\program\RP6FindCenter\main.o
getBufferLength                                   obj\Debug\RP6Examples_20120725f\RP6Lib\RP6common\RP6uart.o
getBumperLeft                                     obj\Debug\RP6Examples_20120725f\RP6Lib\RP6base\RP6RobotBaseLib.o
                                                  obj\Debug\program\RP6FindCenter\main.o
getBumperRight                                    obj\Debug\RP6Examples_20120725f\RP6Lib\RP6base\RP6RobotBaseLib.o
                                                  obj\Debug\program\RP6FindCenter\main.o
getNextCornerTrack                                obj\Debug\program\RP6FindCenter\main.o
hasCrossTracks                                    obj\Debug\program\RP6FindCenter\main.o
initRobotBase                                     obj\Debug\RP6Examples_20120725f\RP6Lib\RP6base\RP6RobotBaseLib.o
                                                  obj\Debug\program\RP6FindCenter\main.o
ircomm_data                                       obj\Debug\RP6Examples_20120725f\RP6Lib\RP6base\RP6RobotBaseLib.o
ircomm_data_tmp                                   obj\Debug\RP6Examples_20120725f\RP6Lib\RP6base\RP6RobotBaseLib.o
ircomm_send                                       obj\Debug\RP6Examples_20120725f\RP6Lib\RP6base\RP6RobotBaseLib.o
isMovementComplete                                obj\Debug\RP6Examples_20120725f\RP6Lib\RP6base\RP6RobotBaseLib.o
                                                  obj\Debug\program\RP6FindCenter\main.o
itoa                                              C:\WinAVR-20100110\avr\lib\libc.a(itoa.o)
                                                  obj\Debug\RP6Examples_20120725f\RP6Lib\RP6common\RP6uart.o
leds_on                                           obj\Debug\RP6Examples_20120725f\RP6Lib\RP6base\RP6RobotBaseLib.o
left_i                                            obj\Debug\RP6Examples_20120725f\RP6Lib\RP6base\RP6RobotBaseLib.o
mSleep                                            obj\Debug\RP6Examples_20120725f\RP6Lib\RP6base\RP6RobotBaseLib.o
main                                              obj\Debug\program\RP6FindCenter\main.o
                                                  c:/winavr-20100110/bin/../lib/gcc/avr/4.3.3/../../../../avr/lib/avr5/crtm32.o
malloc                                            C:\WinAVR-20100110\avr\lib\libc.a(malloc.o)
                                                  obj\Debug\program\RP6FindCenter\main.o
mleft_counter                                     obj\Debug\RP6Examples_20120725f\RP6Lib\RP6base\RP6RobotBaseLib.o
mleft_des_dir                                     obj\Debug\RP6Examples_20120725f\RP6Lib\RP6base\RP6RobotBaseLib.o
mleft_des_speed                                   obj\Debug\RP6Examples_20120725f\RP6Lib\RP6base\RP6RobotBaseLib.o
mleft_des_speed_tmp                               obj\Debug\RP6Examples_20120725f\RP6Lib\RP6base\RP6RobotBaseLib.o
mleft_dir                                         obj\Debug\RP6Examples_20120725f\RP6Lib\RP6base\RP6RobotBaseLib.o
mleft_dist                                        obj\Debug\program\RP6FindCenter\main.o
                                                  obj\Debug\RP6Examples_20120725f\RP6Lib\RP6base\RP6RobotBaseLib.o
mleft_power                                       obj\Debug\RP6Examples_20120725f\RP6Lib\RP6base\RP6RobotBaseLib.o
mleft_ptmp                                        obj\Debug\RP6Examples_20120725f\RP6Lib\RP6base\RP6RobotBaseLib.o
mleft_speed                                       obj\Debug\RP6Examples_20120725f\RP6Lib\RP6base\RP6RobotBaseLib.o
motion_status                                     obj\Debug\program\RP6FindCenter\main.o
                                                  obj\Debug\RP6Examples_20120725f\RP6Lib\RP6base\RP6RobotBaseLib.o
motion_status_tmp                                 obj\Debug\RP6Examples_20120725f\RP6Lib\RP6base\RP6RobotBaseLib.o
motor_control                                     obj\Debug\RP6Examples_20120725f\RP6Lib\RP6base\RP6RobotBaseLib.o
move                                              obj\Debug\RP6Examples_20120725f\RP6Lib\RP6base\RP6RobotBaseLib.o
moveAtSpeed                                       obj\Debug\RP6Examples_20120725f\RP6Lib\RP6base\RP6RobotBaseLib.o
moveAtSpeedDirection                              obj\Debug\RP6Examples_20120725f\RP6Lib\RP6base\RP6RobotBaseLib.o
                                                  obj\Debug\program\RP6FindCenter\main.o
mright_counter                                    obj\Debug\RP6Examples_20120725f\RP6Lib\RP6base\RP6RobotBaseLib.o
mright_des_dir                                    obj\Debug\RP6Examples_20120725f\RP6Lib\RP6base\RP6RobotBaseLib.o
mright_des_speed                                  obj\Debug\RP6Examples_20120725f\RP6Lib\RP6base\RP6RobotBaseLib.o
mright_des_speed_tmp                              obj\Debug\RP6Examples_20120725f\RP6Lib\RP6base\RP6RobotBaseLib.o
mright_dir                                        obj\Debug\RP6Examples_20120725f\RP6Lib\RP6base\RP6RobotBaseLib.o
mright_dist                                       obj\Debug\program\RP6FindCenter\main.o
                                                  obj\Debug\RP6Examples_20120725f\RP6Lib\RP6base\RP6RobotBaseLib.o
mright_power                                      obj\Debug\RP6Examples_20120725f\RP6Lib\RP6base\RP6RobotBaseLib.o
mright_ptmp                                       obj\Debug\RP6Examples_20120725f\RP6Lib\RP6base\RP6RobotBaseLib.o
mright_speed                                      obj\Debug\RP6Examples_20120725f\RP6Lib\RP6base\RP6RobotBaseLib.o
ms_timer                                          obj\Debug\RP6Examples_20120725f\RP6Lib\RP6base\RP6RobotBaseLib.o
newTrack                                          obj\Debug\program\RP6FindCenter\main.o
obstacle_left                                     obj\Debug\RP6Examples_20120725f\RP6Lib\RP6base\RP6RobotBaseLib.o
obstacle_right                                    obj\Debug\RP6Examples_20120725f\RP6Lib\RP6base\RP6RobotBaseLib.o
onStartPointSecondRun                             obj\Debug\program\RP6FindCenter\main.o
onlyCornerTracks                                  obj\Debug\program\RP6FindCenter\main.o
overcurrent_error_clear                           obj\Debug\RP6Examples_20120725f\RP6Lib\RP6base\RP6RobotBaseLib.o
overcurrent_errors                                obj\Debug\RP6Examples_20120725f\RP6Lib\RP6base\RP6RobotBaseLib.o
overcurrent_timeout                               obj\Debug\RP6Examples_20120725f\RP6Lib\RP6base\RP6RobotBaseLib.o
overcurrent_timer                                 obj\Debug\RP6Examples_20120725f\RP6Lib\RP6base\RP6RobotBaseLib.o
powerOFF                                          obj\Debug\RP6Examples_20120725f\RP6Lib\RP6base\RP6RobotBaseLib.o
powerON                                           obj\Debug\RP6Examples_20120725f\RP6Lib\RP6base\RP6RobotBaseLib.o
                                                  obj\Debug\program\RP6FindCenter\main.o
preDecelerate_L                                   obj\Debug\RP6Examples_20120725f\RP6Lib\RP6base\RP6RobotBaseLib.o
preDecelerate_R                                   obj\Debug\RP6Examples_20120725f\RP6Lib\RP6base\RP6RobotBaseLib.o
preStop_L                                         obj\Debug\RP6Examples_20120725f\RP6Lib\RP6base\RP6RobotBaseLib.o
preStop_R                                         obj\Debug\RP6Examples_20120725f\RP6Lib\RP6base\RP6RobotBaseLib.o
readADC                                           obj\Debug\RP6Examples_20120725f\RP6Lib\RP6base\RP6RobotBaseLib.o
readChar                                          obj\Debug\RP6Examples_20120725f\RP6Lib\RP6common\RP6uart.o
readChars                                         obj\Debug\RP6Examples_20120725f\RP6Lib\RP6common\RP6uart.o
read_pos                                          obj\Debug\RP6Examples_20120725f\RP6Lib\RP6common\RP6uart.o
read_size                                         obj\Debug\RP6Examples_20120725f\RP6Lib\RP6common\RP6uart.o
right_i                                           obj\Debug\RP6Examples_20120725f\RP6Lib\RP6base\RP6RobotBaseLib.o
rotate                                            obj\Debug\RP6Examples_20120725f\RP6Lib\RP6base\RP6RobotBaseLib.o
                                                  obj\Debug\program\RP6FindCenter\main.o
secondSide                                        obj\Debug\program\RP6FindCenter\main.o
secondTracks                                      obj\Debug\program\RP6FindCenter\main.o
setACSPwrHigh                                     obj\Debug\RP6Examples_20120725f\RP6Lib\RP6base\RP6RobotBaseLib.o
setACSPwrLow                                      obj\Debug\RP6Examples_20120725f\RP6Lib\RP6base\RP6RobotBaseLib.o
setACSPwrMed                                      obj\Debug\RP6Examples_20120725f\RP6Lib\RP6base\RP6RobotBaseLib.o
setACSPwrOff                                      obj\Debug\RP6Examples_20120725f\RP6Lib\RP6base\RP6RobotBaseLib.o
setLEDs                                           obj\Debug\RP6Examples_20120725f\RP6Lib\RP6base\RP6RobotBaseLib.o
setMotorDir                                       obj\Debug\RP6Examples_20120725f\RP6Lib\RP6base\RP6RobotBaseLib.o
setMotorPower                                     obj\Debug\RP6Examples_20120725f\RP6Lib\RP6base\RP6RobotBaseLib.o
sleep                                             obj\Debug\RP6Examples_20120725f\RP6Lib\RP6base\RP6RobotBaseLib.o
speed_adjust_timer                                obj\Debug\RP6Examples_20120725f\RP6Lib\RP6base\RP6RobotBaseLib.o
speed_timer                                       obj\Debug\RP6Examples_20120725f\RP6Lib\RP6base\RP6RobotBaseLib.o
sqrt                                              C:\WinAVR-20100110\avr\lib\libm.a(sqrt.o)
                                                  obj\Debug\program\RP6FindCenter\main.o
startADC                                          obj\Debug\RP6Examples_20120725f\RP6Lib\RP6base\RP6RobotBaseLib.o
stateMachine                                      obj\Debug\program\RP6FindCenter\main.o
statusLEDs                                        obj\Debug\program\RP6FindCenter\main.o
                                                  obj\Debug\RP6Examples_20120725f\RP6Lib\RP6base\RP6RobotBaseLib.o
stop                                              obj\Debug\RP6Examples_20120725f\RP6Lib\RP6base\RP6RobotBaseLib.o
                                                  obj\Debug\program\RP6FindCenter\main.o
stopwatches                                       obj\Debug\RP6Examples_20120725f\RP6Lib\RP6base\RP6RobotBaseLib.o
strlen                                            C:\WinAVR-20100110\avr\lib\libc.a(strlen.o)
                                                  obj\Debug\RP6Examples_20120725f\RP6Lib\RP6common\RP6uart.o
strrev                                            C:\WinAVR-20100110\avr\lib\libc.a(strrev.o)
                                                  C:\WinAVR-20100110\avr\lib\libc.a(itoa.o)
sysStatACS                                        obj\Debug\RP6Examples_20120725f\RP6Lib\RP6base\RP6RobotBaseLib.o
tanAlpha                                          obj\Debug\program\RP6FindCenter\main.o
task_ACS                                          obj\Debug\RP6Examples_20120725f\RP6Lib\RP6base\RP6RobotBaseLib.o
task_ADC                                          obj\Debug\RP6Examples_20120725f\RP6Lib\RP6base\RP6RobotBaseLib.o
task_Bumpers                                      obj\Debug\RP6Examples_20120725f\RP6Lib\RP6base\RP6RobotBaseLib.o
task_RP6System                                    obj\Debug\RP6Examples_20120725f\RP6Lib\RP6base\RP6RobotBaseLib.o
                                                  obj\Debug\program\RP6FindCenter\main.o
task_motionControl                                obj\Debug\RP6Examples_20120725f\RP6Lib\RP6base\RP6RobotBaseLib.o
timer                                             obj\Debug\program\RP6FindCenter\main.o
                                                  obj\Debug\RP6Examples_20120725f\RP6Lib\RP6base\RP6RobotBaseLib.o
tryCalcFirstSide                                  obj\Debug\program\RP6FindCenter\main.o
tryCalcSecondSide                                 obj\Debug\program\RP6FindCenter\main.o
uart_receive_buffer                               obj\Debug\RP6Examples_20120725f\RP6Lib\RP6common\RP6uart.o
uart_status                                       obj\Debug\RP6Examples_20120725f\RP6Lib\RP6common\RP6uart.o
updateStatusLEDs                                  obj\Debug\RP6Examples_20120725f\RP6Lib\RP6base\RP6RobotBaseLib.o
writeChar                                         obj\Debug\RP6Examples_20120725f\RP6Lib\RP6common\RP6uart.o
                                                  obj\Debug\program\RP6FindCenter\main.o
writeInteger                                      obj\Debug\RP6Examples_20120725f\RP6Lib\RP6common\RP6uart.o
                                                  obj\Debug\program\RP6FindCenter\main.o
writeIntegerLength                                obj\Debug\RP6Examples_20120725f\RP6Lib\RP6common\RP6uart.o
writeNStringP                                     obj\Debug\RP6Examples_20120725f\RP6Lib\RP6common\RP6uart.o
                                                  obj\Debug\RP6Examples_20120725f\RP6Lib\RP6base\RP6RobotBaseLib.o
writeString                                       obj\Debug\RP6Examples_20120725f\RP6Lib\RP6common\RP6uart.o
                                                  obj\Debug\program\RP6FindCenter\main.o
writeStringLength                                 obj\Debug\RP6Examples_20120725f\RP6Lib\RP6common\RP6uart.o
write_pos                                         obj\Debug\RP6Examples_20120725f\RP6Lib\RP6common\RP6uart.o
write_size                                        obj\Debug\RP6Examples_20120725f\RP6Lib\RP6common\RP6uart.o
